(lp0
(S'Excellent'
p1
S'pos'
p2
tp3
a(S'Excellent'
p4
S'pos'
p5
tp6
a(S'Excellent!'
p7
S'pos'
p8
tp9
a(S'..... Superb!!'
p10
S'pos'
p11
tp12
a(S'Amazingly good.......'
p13
S'pos'
p14
tp15
a(S'I will use this app when there is option for multiple account - sorry'
p16
S'neg'
p17
tp18
a(S'Simply suberb'
p19
S'pos'
p20
tp21
a(S'Excellent application.  I like it. Very simple n good.'
p22
S'pos'
p23
tp24
a(S'Nice apps and good move for yahoo'
p25
S'pos'
p26
tp27
a(S'Wow'
p28
S'pos'
p29
tp30
a(S'Use to use and clean interface'
p31
S'pos'
p32
tp33
a(S'Awsme.nd vry easy..'
p34
S'pos'
p35
tp36
a(S'nice App'
p37
S'pos'
p38
tp39
a(S'Useful'
p40
S'neut'
p41
tp42
a(S'Awesome app!!!'
p43
S'pos'
p44
tp45
a(S'Great interface. Cool feel.'
p46
S'pos'
p47
tp48
a(S'Very great app,only one suggestion:i cant add folder in the email'
p49
S'both'
p50
tp51
a(S'Best mail app'
p52
S'pos'
p53
tp54
a(S'Perfect app'
p55
S'pos'
p56
tp57
a(S'Thanks for this gr8 app. Yahoo was my first mail and so important in the life. With this app, it is getting again its importance..'
p58
S'pos'
p59
tp60
a(S'It is v.Nice'
p61
S'pos'
p62
tp63
a(S'Lovely app!!'
p64
S'pos'
p65
tp66
a(S'Great app'
p67
S'pos'
p68
tp69
a(S'Fantastic'
p70
S'pos'
p71
tp72
a(S'Excellent'
p73
S'pos'
p74
tp75
a(S'Its a bliss to use yahoomail on iPhone &amp; iPad.'
p76
S'pos'
p77
tp78
a(S'Easy, cool and friendly.. The only issue I have with it is that I dont get notifications when I recieve an email to a folder other than Inbox.. The rest is great..'
p79
S'both'
p80
tp81
a(S'So Cute'
p82
S'pos'
p83
tp84
a(S'Awesome!!!'
p85
S'pos'
p86
tp87
a(S'Nice'
p88
S'pos'
p89
tp90
a(S'Awesome!'
p91
S'pos'
p92
tp93
a(S'Very slow compared to iPhone mail app, and less handy'
p94
S'neg'
p95
tp96
a(S'Thank you Yahoo for your new and awesome app, you are the best , we always want new apps from you , still the best'
p97
S'pos'
p98
tp99
a(S'Im lovn it!!! \xf0\x9f\x98\x8e\xf0\x9f\x91\x8d'
p100
S'pos'
p101
tp102
a(S'Super star'
p103
S'pos'
p104
tp105
a(S'Love you yahoo! U are my first love .. Bring all the glory back ! Great app...!!!!'
p106
S'pos'
p107
tp108
a(S'V.good'
p109
S'pos'
p110
tp111
a(S'Nice!!!!!!!!!'
p112
S'pos'
p113
tp114
a(S'Need to upgrade...'
p115
S'pos'
p116
tp117
a(S'Super Dooper'
p118
S'pos'
p119
tp120
a(S'Very useful'
p121
S'pos'
p122
tp123
a(S'Perfect options....'
p124
S'pos'
p125
tp126
a(S'Good application'
p127
S'pos'
p128
tp129
a(S'Crashed during send operation, after that I wasnt able to run app'
p130
S'neg'
p131
tp132
a(S'Great app'
p133
S'pos'
p134
tp135
a(S'Again I use my Yahoo! Mail'
p136
S'pos'
p137
tp138
a(S'works very well'
p139
S'pos'
p140
tp141
a(S'Quick and simple.'
p142
S'pos'
p143
tp144
a(S'Looks much better than apple app.'
p145
S'pos'
p146
tp147
a(S'There are still too many bugs! Omg!!'
p148
S'neg'
p149
tp150
a(S'I think it is very useful when u want to look at ur e-mail'
p151
S'pos'
p152
tp153
a(S'I like it.'
p154
S'pos'
p155
tp156
a(S'Happy with it'
p157
S'pos'
p158
tp159
a(S'Recommendable!'
p160
S'pos'
p161
tp162
a(S'Good app'
p163
S'pos'
p164
tp165
a(S'Irie :)'
p166
S'pos'
p167
tp168
a(S'very reliable rapid notification is clear geand one more'
p169
S'pos'
p170
tp171
a(S'BEAUTIFUL'
p172
S'pos'
p173
tp174
a(S'OK'
p175
S'pos'
p176
tp177
a(S'Ok'
p178
S'pos'
p179
tp180
a(S'Awesome'
p181
S'pos'
p182
tp183
a(S'Excellent app'
p184
S'pos'
p185
tp186
a(S'Even exiting the application it is getting mens.'
p187
S'neg'
p188
tp189
a(S'Very simple and easy to use ... I recommend!'
p190
S'pos'
p191
tp192
a(S'Very useful and simple.'
p193
S'pos'
p194
tp195
a(S'An excellent application of e-mail, easy, lightweight, intuitive and fast!'
p196
S'pos'
p197
tp198
a(S'Good APP with it you can access multiple accounts from Yahoo, with more facilities than the web, I recommend it.'
p199
S'pos'
p200
tp201
a(S'While there is no possibility to mark several mails at once, you can not evaluate as well ...'
p202
S'neg'
p203
tp204
a(S'Fast and well structured!'
p205
S'pos'
p206
tp207
a(S'Fast'
p208
S'pos'
p209
tp210
a(S'Very good this app, much better than the application of native email on the iPhone.'
p211
S'pos'
p212
tp213
a(S'Fast and well structured.'
p214
S'pos'
p215
tp216
a(S'App pleasant and quick!'
p217
S'pos'
p218
tp219
a(S'Congratulations to the programmer.'
p220
S'pos'
p221
tp222
a(S'Quick and practical.'
p223
S'pos'
p224
tp225
a(S'This app has definitely surprised me. Loads email very quick and it looks good!'
p226
S'pos'
p227
tp228
a(S'Good app easy, intuitive, q penalty boxes are duplicated.'
p229
S'both'
p230
tp231
a(S'Very good, loved it.'
p232
S'pos'
p233
tp234
a(S'Fast and very good'
p235
S'pos'
p236
tp237
a(S'Efficient'
p238
S'pos'
p239
tp240
a(S'It was time that was the will of yahoo mail for iOS, now you just need the yahoo answer on iOS!'
p241
S'both'
p242
tp243
a(S'User friendly. Can be faster to load.'
p244
S'both'
p245
tp246
a(S'Very top the app, practical and objective.'
p247
S'pos'
p248
tp249
a(S'Well efficient and lightweight'
p250
S'pos'
p251
tp252
a(S'Great app! Loads e-mail faster than mail, easier to navigate between folders...'
p253
S'pos'
p254
tp255
a(S'Very Good'
p256
S'pos'
p257
tp258
a(S'who would say, pleasantly surprised.'
p259
S'pos'
p260
tp261
a(S'Fast and practical.'
p262
S'pos'
p263
tp264
a(S'Great app, easy and very useful in everyday life.'
p265
S'pos'
p266
tp267
a(S'First app I feel an obligation to evaluate and give 5 stars ...!'
p268
S'pos'
p269
tp270
a(S'This new version was very good application. I recommend!'
p271
S'pos'
p272
tp273
a(S'No iPad platform? Terrible.'
p274
S'neg'
p275
tp276
a(S'This app is good. Better than most mail apps. But far inferior to the native iOS mail. I fail to see the need for this yahoo mail client. The native app benefits from iOS push notification, which are near instant as well as the notification center. It allows the user to see and access his custom folders and do almost everything he can from a PC browser.'
p277
S'both'
p278
tp279
a(S'Their needs to be a way to easily delete spam'
p280
S'neg'
p281
tp282
a(S'Not every network allows access to my emails through my iphone mailbox.  This is the perfect app that I have been waiting for. I can always access my yahoo mail easily without any restrictions on networks that I am connecting to.'
p283
S'pos'
p284
tp285
a(S'This app is great. I just wish it had an option for VIP mail alerts like the iPhone mail app. If it did, I would give it 5 stars.'
p286
S'both'
p287
tp288
a(S'Great app.  A very good start'
p289
S'pos'
p290
tp291
a(S'I finally succumbed to incessant pressure to install the damned thing even though I did not ask for it or want it. And I hate when Yahoo blocks the bottom section of iPhone formatted articles so that it is impossible to view the desktop version. It is okay I guess...but I hate HATE being badgered to download stuff I do not ask for.'
p292
S'neg'
p293
tp294
a(S'Quick and easy to use!'
p295
S'pos'
p296
tp297
a(S'Thanks yahoo for this app finally u decided to have a great app. Easy, simple and fast.'
p298
S'pos'
p299
tp300
a(S'I think it is great'
p301
S'pos'
p302
tp303
a(S'Like it -makes it easier to access my mail'
p304
S'pos'
p305
tp306
a(S'Hello, can you add a support for more than one Yahoo! Account I have my self 3 that I want to use here'
p307
S'neut'
p308
tp309
a(S'I like it. Does what I need it to.'
p310
S'pos'
p311
tp312
a(S'Good enough. Not many bells or whistles but it works'
p313
S'both'
p314
tp315
a(S'Excellent mail app. Best Ive seen.'
p316
S'pos'
p317
tp318
a(S'I think think this app..is really great even though its Not an iPhone! It works great on the wifi !'
p319
S'both'
p320
tp321
a(S'Works great!'
p322
S'pos'
p323
tp324
a(S'The app doesnt let you to choose different notification sound and the one that developers chose is very annoying and confusing.'
p325
S'neg'
p326
tp327
a(S'It took too long but worth it! I love the app, life saver'
p328
S'both'
p329
tp330
a(S'Didnt use it much because it only handles one email account at a time, and I have two.'
p331
S'neg'
p332
tp333
a(S'I still cant get it to work. All I wanted was to mark some mail as spam, but now Im in an even worse position than before.'
p334
S'neg'
p335
tp336
a(S'Does not have yahoo calendar.'
p337
S'neg'
p338
tp339
a(S'This app is great but please make it so i can use multiple accounts like the default mail app'
p340
S'both'
p341
tp342
a(S'Spam filtering is very lacking! It does not work very well. Shame Yahoo.'
p343
S'neg'
p344
tp345
a(S'This was long overdue. Downloaded it today and so far so good. No issues. Quite good interface.'
p346
S'both'
p347
tp348
a(S'Yahoo is number one....there work professional team .'
p349
S'pos'
p350
tp351
a(S'Keeps crashing all the time'
p352
S'neg'
p353
tp354
a(S'Great app.!'
p355
S'pos'
p356
tp357
a(S'Very basic features that rarely work!'
p358
S'neg'
p359
tp360
a(S'With web we easily access the calendar. With this apps the calendar is missing from the apps list.'
p361
S'neg'
p362
tp363
a(S'Does the job'
p364
S'neut'
p365
tp366
a(S'Just downloaded this app a few days ago and I am enjoying it.'
p367
S'pos'
p368
tp369
a(S'Its the best! But I wait to see best version of the best!'
p370
S'pos'
p371
tp372
a(S'Hmmm. So far not pleased with this app. "Failed to download message" is becoming a frequent notice.'
p373
S'both'
p374
tp375
a(S'I have used other mail apps but thus one is by far the best.'
p376
S'pos'
p377
tp378
a(S'I like it it is awesome.'
p379
S'pos'
p380
tp381
a(S'This is a great app.  Love the functionality.  Couldnt log-in on LTE, needed wifi.  Overall great!'
p382
S'both'
p383
tp384
a(S'No problems whatsoever.'
p385
S'pos'
p386
tp387
a(S'This app is awestruck! It really helped me keep up to date with my email!'
p388
S'pos'
p389
tp390
a(S'Good alternate app when corporate mail restriction in place.'
p391
S'pos'
p392
tp393
a(S'I like the yahoo mail app. The only problem I have is that all my folders in my inbox is in doubles-please fix it. Other than that its great to use.'
p394
S'both'
p395
tp396
a(S'It works great!'
p397
S'pos'
p398
tp399
a(S'Better than before'
p400
S'pos'
p401
tp402
a(S'Its great'
p403
S'pos'
p404
tp405
a(S'I wish the app would allow more than one yahoo mail to be set up on it. I have multiple yahoo mail accounts for different purposes. I wish I could manage them all in this app.'
p406
S'neut'
p407
tp408
a(S'A zero rating for me cant seem to get into my business account which is what I use. Have use the web browser to do it.'
p409
S'neg'
p410
tp411
a(S'No issue and I love it'
p412
S'pos'
p413
tp414
a(S'I love it.'
p415
S'pos'
p416
tp417
a(S'Dont like how it goes one way chronologically so if I mark one as unread, then delete the next one, it will then take me back to the unread one and I have to mark it as unread every time if I want that label to stay. Doesnt feel very intuitive.'
p418
S'neg'
p419
tp420
a(S'This app wont even open for me.  It works intermittently.  Im removing it!'
p421
S'neg'
p422
tp423
a(S'Good for iphone. Useless for ipad. Get on your horses.'
p424
S'both'
p425
tp426
a(S'Very good App for checking yahoo email'
p427
S'pos'
p428
tp429
a(S'Crashes (exits) immediately after start up, very unreliable. Yahoo!..very disappointing.'
p430
S'neg'
p431
tp432
a(S'Like it, long time was waiting for such app.'
p433
S'pos'
p434
tp435
a(S'Log on needs a remember me button not just go to my email right away. I like having the option to put it in or not.'
p436
S'neut'
p437
tp438
a(S'Now it is perfect'
p439
S'pos'
p440
tp441
a(S'Finally an app for Yahoo! Mail. Hopefully in your next update we can have it optimized for the iPad and support for multiple IDs'
p442
S'neut'
p443
tp444
a(S'I have to email add from yahoo but I can only view one account.'
p445
S'neut'
p446
tp447
a(S'Function-wise the app works well. I  able to organize my mail simply.  However, startup time until I actually see my listing of mail has greatly increased. I see the purple yahoo splash screen for at least 7 secs. Used to be 1 or 2.'
p448
S'both'
p449
tp450
a(S'I loaded this app to hopefully be able to mark certain emails as "not spam" so they would come to my inbox. No such luck. Please put that feature on here.'
p451
S'neg'
p452
tp453
a(S'I wish they had an option for remembering the user name, all we need to type is just the password only.'
p454
S'neut'
p455
tp456
a(S'After installing this app, someone hacked into my account and sent a bunch of emails to my contacts. I dont even know what was sent... Im so mad!!! Had to change everything!!! Dont install!!!'
p457
S'neg'
p458
tp459
a(S'crashes whenever I try to reply to an email. makes email font tiny. the other things LOOK good though.'
p460
S'both'
p461
tp462
a(S'it would be perfect if the log in section has "remember me" options'
p463
S'neg'
p464
tp465
a(S'...at least so far. I was having a lot of problems with Yahoo Mail in Safari, and havent yet experienced them with this app.'
p466
S'neut'
p467
tp468
a(S'Excellent'
p469
S'pos'
p470
tp471
a(S'Was excited about this app as I have not been able to access my yahoo mail for 2 months on my iPhone 5. However quite disappointed as I keep getting the "Authentication Failed" error message. Any solutions?'
p472
S'neg'
p473
tp474
a(S'Complete'
p475
S'pos'
p476
tp477
a(S'I love the setting and its simple.'
p478
S'pos'
p479
tp480
a(S'Only printer is not easy'
p481
S'neg'
p482
tp483
a(S'great app try it its worth it'
p484
S'pos'
p485
tp486
a(S'Very smooth beautiful UI I love this app personally'
p487
S'pos'
p488
tp489
a(S'Really something u should come up wid  earlier'
p490
S'neg'
p491
tp492
a(S'Was great initially but now it wont open. It crashes all the time. Please fix the bugs!!!'
p493
S'both'
p494
tp495
a(S'Incorrect refreshed content'
p496
S'neg'
p497
tp498
a(S'The app looks nice, but Im now stuck in "All Contacts" and theres no way to escape and get back to my mailboxes. Ill uninstall and reinstall, but still - not a great first impression.'
p499
S'both'
p500
tp501
a(S'Would give zero stars if I could. Doesnt work ... Keeps showing incorrect number of emails unread and sporadically will not show current emails ... Basic stuff and they cant get it working - no wonder yahoo is a shadow of its former self'
p502
S'neg'
p503
tp504
a(S'Better then just having it as a mail but refreshing itself is not good'
p505
S'both'
p506
tp507
a(S'So far Im loving this app its much more cooperative than the mail ap that came on my cell originally and I have not had any problems with the services.'
p508
S'pos'
p509
tp510
a(S'Yahoo mail is the best email version I ever used better than others!!!!!!!!!!!!!!!!!'
p511
S'pos'
p512
tp513
a(S':)'
p514
S'pos'
p515
tp516
a(S'Its not password protected, and you cannot sign up more than one account.'
p517
S'neut'
p518
tp519
a(S'Does not bring anything more on my iphone !!!!'
p520
S'neut'
p521
tp522
a(S'I thanks it work better now,'
p523
S'pos'
p524
tp525
a(S'Better'
p526
S'pos'
p527
tp528
a(S'Still dont know how to add a second Yahoo account. Support team at Yahoo do not even know about the app. Well done!'
p529
S'neg'
p530
tp531
a(S'I like it, you can add photos and the layout is pretty'
p532
S'pos'
p533
tp534
a(S'While app itself looks neat, it crashes all the time. I hope bugs will be fixed soon as if not i will probably choose to delete the app altogether from my phone.'
p535
S'both'
p536
tp537
a(S'UI good. Unfortunately all custom folders were duplicated.'
p538
S'both'
p539
tp540
a(S'quite useful'
p541
S'pos'
p542
tp543
a(S'Just kick option for unread emails'
p544
S'neut'
p545
tp546
a(S'Simply great'
p547
S'pos'
p548
tp549
a(S'Nothing to say, just spectacular'
p550
S'pos'
p551
tp552
a(S'Having trouble with mailbox deleted emails'
p553
S'neg'
p554
tp555
a(S'Its a real mail can do anything'
p556
S'pos'
p557
tp558
a(S'like to hope that more and more advantage of future upgrades'
p559
S'neut'
p560
tp561
a(S'Clear Deleted Items "will get stuck and then flash back to need secondary open the delete to succeed. '
p562
S'neut'
p563
tp564
a(S'This App cannot add attached file as PC version , only can add photo annex, hope can upgrade it.'
p565
S'neut'
p566
tp567
a(S'love this APP\xef\xbc\x81\xf0\x9f\x92\x98'
p568
S'pos'
p569
tp570
a(S'Useful'
p571
S'pos'
p572
tp573
a(S'nice!'
p574
S'pos'
p575
tp576
a(S'very good, and very convenient'
p577
S'pos'
p578
tp579
a(S'This app is fantastic!'
p580
S'pos'
p581
tp582
a(S'This thing is rubbish. It crashes a lot. And cant send messages to save its life. Please take it from me, if you just installed ios6, dont bother downloading this thing.'
p583
S'neg'
p584
tp585
a(S'trial find it very convenient'
p586
S'pos'
p587
tp588
a(S'very satisfied! '
p589
S'pos'
p590
tp591
a(S'like oh'
p592
S'pos'
p593
tp594
a(S'perfects'
p595
S'pos'
p596
tp597
a(S'yahoo will make a comeback'
p598
S'neut'
p599
tp600
a(S'great! '
p601
S'pos'
p602
tp603
a(S'I like it. Its very good app for email.'
p604
S'pos'
p605
tp606
a(S'Very fast &amp; convenient to use!!!'
p607
S'pos'
p608
tp609
a(S'Give you five'
p610
S'neut'
p611
tp612
a(S'is indeed my favorite mailbox. '
p613
S'pos'
p614
tp615
a(S'I love it'
p616
S'pos'
p617
tp618
a(S'Year'
p619
S'neut'
p620
tp621
a(S'is good, we must support Yahoo! '
p622
S'pos'
p623
tp624
a(S'good'
p625
S'pos'
p626
tp627
a(S'very easy to use, convenient'
p628
S'pos'
p629
tp630
a(S'App Yahoo Mail uses really easy'
p631
S'pos'
p632
tp633
a(S'Super'
p634
S'pos'
p635
tp636
a(S'There are problems opening attachments even though I have PDF applications for office'
p637
S'neg'
p638
tp639
a(S'Very good, easy to use, practical.'
p640
S'pos'
p641
tp642
a(S'excellent'
p643
S'pos'
p644
tp645
a(S'The app closes after a few seconds'
p646
S'neut'
p647
tp648
a(S'Excellent App'
p649
S'pos'
p650
tp651
a(S'OK'
p652
S'pos'
p653
tp654
a(S'Very good'
p655
S'pos'
p656
tp657
a(S'It looks good'
p658
S'pos'
p659
tp660
a(S'I love it'
p661
S'pos'
p662
tp663
a(S'A mail app and not optimized for iPad! \xf0\x9f\x98\xb1\xf0\x9f\x91\x8e'
p664
S' neg'
p665
tp666
a(S'Amazing'
p667
S'pos'
p668
tp669
a(S'It works very well'
p670
S'pos'
p671
tp672
a(S'Gimme iPad!'
p673
S'neg'
p674
tp675
a(S'why there is still the indicator present for new unopen mails although no new mails are there to read?'
p676
S'neg'
p677
tp678
a(S'Super App. Missing only the photo attachments'
p679
S'both'
p680
tp681
a(S'Very good but only for an email with multiple email was better'
p682
S'both'
p683
tp684
a(S'Good'
p685
S'pos'
p686
tp687
a(S'Saves a lot of time'
p688
S'pos'
p689
tp690
a(S'Works and is easy to use.'
p691
S'pos'
p692
tp693
a(S'The app is good, but I think it would be better if you could also link two accounts with the app.'
p694
S'both'
p695
tp696
a(S'Very slow app, yahoo could do it much better'
p697
S'neg'
p698
tp699
a(S'Super good'
p700
S'pos'
p701
tp702
a(S'Its a good app because its so simple to use'
p703
S'pos'
p704
tp705
a(S'Excellent'
p706
S'pos'
p707
tp708
a(S'Excellent application recommended'
p709
S'pos'
p710
tp711
a(S'Thanks Yahoo'
p712
S'pos'
p713
tp714
a(S'Excellent'
p715
S'pos'
p716
tp717
a(S'Nice app and easy,fast :)'
p718
S'pos'
p719
tp720
a(S'OIB folders are repeated in my inbox.'
p721
S'neut'
p722
tp723
a(S'Very good app'
p724
S'pos'
p725
tp726
a(S'The best way for the emails on the phone'
p727
S'pos'
p728
tp729
a(S'How can I access my contacts'
p730
S'neut'
p731
tp732
a(S'Great app and fast,easy'
p733
S'pos'
p734
tp735
a(S'Many thanks'
p736
S'pos'
p737
tp738
a(S'This nicely App'
p739
S'pos'
p740
tp741
a(S'going well now I can delete all with one click the recommend very good app'
p742
S'pos'
p743
tp744
a(S'It takes two days without working, not charging and closes automatically, but happens to someone?'
p745
S'neg'
p746
tp747
a(S'very good'
p748
S'pos'
p749
tp750
a(S'does the job'
p751
S'neut'
p752
tp753
a(S'Fast'
p754
S'pos'
p755
tp756
a(S'no good, you can not attach files'
p757
S'pos'
p758
tp759
a(S'Recommended'
p760
S'pos'
p761
tp762
a(S'Perfect'
p763
S'pos'
p764
tp765
a(S'This app works perfectly'
p766
S'pos'
p767
tp768
a(S'No search function'
p769
S'neut'
p770
tp771
a(S'Its great and I love to practice'
p772
S'pos'
p773
tp774
a(S'Funciona.muy it is total'
p775
S'pos'
p776
tp777
a(S'worth'
p778
S'pos'
p779
tp780
a(S'Full of functionality!'
p781
S'pos'
p782
tp783
a(S'Go faster, much better than access through the website.'
p784
S'pos'
p785
tp786
a(S'failure but have improved a lot with the design.'
p787
S'both'
p788
tp789
a(S'is for but Im using in ipad 3.'
p790
S'neut'
p791
tp792
a(S'Very nice'
p793
S'pos'
p794
tp795
a(S'Perfectly opens and messages instant alert to inbox is awesome !!!'
p796
S'pos'
p797
tp798
a(S'Not bad at all!'
p799
S'pos'
p800
tp801
a(S'Still not create disposable addresses on iOS ...'
p802
S'neut'
p803
tp804
a(S'You can not select all the messages at once ...'
p805
S'neut'
p806
tp807
a(S'I cannot access other folders than inbox, i guess this will be taken care of in the next version. :-)'
p808
S'neut'
p809
tp810
a(S'Very good application, ergonomic and beautiful, everything is there!'
p811
S'pos'
p812
tp813
a(S'A very good app, beautiful'
p814
S'pos'
p815
tp816
a(S'Excellent'
p817
S'pos'
p818
tp819
a(S'Unable to resolve'
p820
S'neut'
p821
tp822
a(S'Easy to use, instant mail: perfect'
p823
S'pos'
p824
tp825
a(S'Good luck'
p826
S'neut'
p827
tp828
a(S'Good app self entrepreneur'
p829
S'pos'
p830
tp831
a(S'can do better'
p832
S'neg'
p833
tp834
a(S'It is in English,'
p835
S'neut'
p836
tp837
a(S'Good app, easy to use.'
p838
S'pos'
p839
tp840
a(S'Super apply:)'
p841
S'pos'
p842
tp843
a(S'Too bad the app is correctly was singing until mid-December but since ca 15d becomes impossible.'
p844
S'both'
p845
tp846
a(S'Application I was looking for. Minus one star, because I can not access to attached files.'
p847
S'both'
p848
tp849
a(S'Tha app sometimes does not open! It does as it would, but crashes and does not open. Sometimes it opens after 3 or 4 tries, but sometimes not: you need then to deinstall and install it again in order it opens again. I use an iPhone 4 with iOS 6.0.1. This must be corrected asap, please.'
p850
S'neg'
p851
tp852
a(S'shame that we can not write secondary addresses recorded in the yahoo'
p853
S'neg'
p854
tp855
a(S'Very proper application pity that I can not multiple accounts.'
p856
S'both'
p857
tp858
a(S'The best'
p859
S'pos'
p860
tp861
a(S'Impeccable'
p862
S'pos'
p863
tp864
a(S'Very useful application, thanks we waiting for more.'
p865
S'both'
p866
tp867
a(S'Thank you.'
p868
S'pos'
p869
tp870
a(S'Nice improvement vs. previous versions! However, still need threading, VIP options etc.'
p871
S'both'
p872
tp873
a(S'Big bug sometimes damage'
p874
S'neg'
p875
tp876
a(S'Nothing to add.'
p877
S'neut'
p878
tp879
a(S'Haste to have now is doing :)'
p880
S'pos'
p881
tp882
a(S'Very practical.'
p883
S'pos'
p884
tp885
a(S'These cool because it avoids taking the option mail'
p886
S'pos'
p887
tp888
a(S'Impossible to protect access to the messaging code'
p889
S'neut'
p890
tp891
a(S'Size not adapted to the screen size should be zoom and then everything becomes a blur!'
p892
S'neg'
p893
tp894
a(S'All my files are split ... and my inbox shows 2 unread emails but they do not appear in the Inbox despite a refreshment ...'
p895
S'neg'
p896
tp897
a(S'No access to the folders !!!!!'
p898
S'neg'
p899
tp900
a(S'There should be  a way to delete all emails from spam and trash with one move instead of opening the folders, checking one email, then checking all emails and finally deleting them.'
p901
S'neg'
p902
tp903
a(S'Does anyone know if there is a way to have 2 accounts permanently open yahoo mail?'
p904
S'neut'
p905
tp906
a(S'Really great app for yahoo mail !!!'
p907
S'pos'
p908
tp909
a(S'Its not a fast app , problem with checking!bud version!'
p910
S'neg'
p911
tp912
a(S'Amazing'
p913
S'pos'
p914
tp915
a(S'good looks will see the operation and will kratiso bravo good app!!!!!!!!!'
p916
S'pos'
p917
tp918
a(S'Thanks'
p919
S'pos'
p920
tp921
a(S'Practice!'
p922
S'neg'
p923
tp924
a(S'Faster and smooth'
p925
S'pos'
p926
tp927
a(S'Good one'
p928
S'pos'
p929
tp930
a(S'is very stream \xf0\xa3\x88\xb1'
p931
S'pos'
p932
tp933
a(S'5 Star!'
p934
S'pos'
p935
tp936
a(S'fierce YES OK I A / C Lock Zo into complete information, the pop-up has been unlocked, then login, turned around and went to the first error point to know and bounced back msg, A / C Lock Zo. '
p937
S'both'
p938
tp939
a(S'Good job'
p940
S'pos'
p941
tp942
a(S'good to use, keep it up yahoo ;)'
p943
S'pos'
p944
tp945
a(S'How can I multi login just like gmail?'
p946
S'neut'
p947
tp948
a(S'I tried to set in iPhone that new mails should not give a sound. All incoming mails respond with a loud tune that it woke us up. I tried to restart iPhone and it did not help either. Please help .'
p949
S'neg'
p950
tp951
a(S'Can use contact from phone contact only.'
p952
S'neut'
p953
tp954
a(S'Like creating new folders, log-in and fast switch between multiple accounts.'
p955
S'neut'
p956
tp957
a(S'Always can load into the apps!'
p958
S'pos'
p959
tp960
a(S'than before, better and faster, clear easy to use! '
p961
S'pos'
p962
tp963
a(S'finally got this. v useful'
p964
S'pos'
p965
tp966
a(S'than the Gmail app easy to use, but the fly in the ointment is only one account can log in, and hope that the next version supports multi-account login. '
p967
S'both'
p968
tp969
a(S'More better then icloud'
p970
S'pos'
p971
tp972
a(S'As subject'
p973
S'neut'
p974
tp975
a(S'Good app'
p976
S'pos'
p977
tp978
a(S'Good App'
p979
S'pos'
p980
tp981
a(S'Excellent!'
p982
S'pos'
p983
tp984
a(S'In the long and wonderous tradition of yahoo fails - this one tops the charts. App crashes at any opportunity - if it opens at all. I guess after all the years of agony the time has come to put yahoo mail out of its misery. Rest in peace.'
p985
S'neg'
p986
tp987
a(S'Extra'
p988
S'pos'
p989
tp990
a(S'Just could be better, I was expecting a lot more from Yahoo.'
p991
S'neg'
p992
tp993
a(S'Very cool'
p994
S'pos'
p995
tp996
a(S'Good, but can handle only one account'
p997
S'both'
p998
tp999
a(S'Nice app \xf0\x9f\x98\x8a'
p1000
S'pos'
p1001
tp1002
a(S'Please make it work on iOS 5, please...'
p1003
S'neut'
p1004
tp1005
a(S'Good! mail'
p1006
S'pos'
p1007
tp1008
a(S'Its will be great if support multiple account.'
p1009
S'neut'
p1010
tp1011
a(S'This app is so usefull and its so easy to use and very very light to open mail content, manage , erase multyple and so. Thank u yahoo'
p1012
S'pos'
p1013
tp1014
a(S'Cannot add field name just showed mail address instead. Otherwise, great application...'
p1015
S'both'
p1016
tp1017
a(S'Nice Apps but cant download any attachment and edit forward any email'
p1018
S'both'
p1019
tp1020
a(S'Please make an option to back view list mail after deleting some mail..'
p1021
S'neut'
p1022
tp1023
a(S'Very good appl.'
p1024
S'pos'
p1025
tp1026
a(S'add flagged folder please. And I suggest this app to follow gmail app.'
p1027
S'neut'
p1028
tp1029
a(S'Ready to try'
p1030
S'neut'
p1031
tp1032
a(S'Need multi account support m threaded view please.. Im waiting..'
p1033
S'neut'
p1034
tp1035
a(S'great...but there is no room for user to customize own.'
p1036
S'both'
p1037
tp1038
a(S'This app is good but not support multiple account, please update'
p1039
S'both'
p1040
tp1041
a(S'Its good but I cant dowload mail with pic attachments. Pls fix it.. Pleaseeee.. Thank you so much :)'
p1042
S'both'
p1043
tp1044
a(S'nicee apps..keep up the good work team'
p1045
S'pos'
p1046
tp1047
a(S'I find ive no problems what so ever with the app.'
p1048
S'pos'
p1049
tp1050
a(S'Sometimes it says I have a new email but doesnt show even after logging out many times.'
p1051
S'neut'
p1052
tp1053
a(S'App doesnt seem to refresh external mail as can be done on web version. Renders the app useless to anyone using yahoo mail with external email account'
p1054
S'neg'
p1055
tp1056
a(S'the apps are nice, i think they should have allow 2 or more yahoo account in one apps, thats really nice...'
p1057
S'pos'
p1058
tp1059
a(S'Great app. Easy to get around, attractive design'
p1060
S'pos'
p1061
tp1062
a(S'The iPhone would have a brilliant and clean mail app. Why should I want to use an app with ads and a bad user experience instead? And why did this app get directly 5 times 5 stars? Hmm \xf0\x9f\x99\x8a'
p1063
S'neg'
p1064
tp1065
a(S'Very handy when it works, but it freezes up every time you open the menu tab, only solution is to delete app and reinstall.'
p1066
S'both'
p1067
tp1068
a(S'Love it'
p1069
S'pos'
p1070
tp1071
a(S'If there was a minus 5 stars thats how bad I would rate this'
p1072
S'neg'
p1073
tp1074
a(S'At last! This app has saved me time and made tapping easier'
p1075
S'pos'
p1076
tp1077
a(S'This app worked quite well initially. It has a very nice interface and integrates seamlessly with yahoo webmail, without the annoyances of marking emails as read etc that comes with the native app. After a few weeks use, it is constantly crashing, which I presume is a memory issue. Needs a fix to continue using it. (3GS IOS 6.0.1).'
p1078
S'both'
p1079
tp1080
a(S'Its works brilliantly and is good'
p1081
S'pos'
p1082
tp1083
a(S'Great app! Its classy looking, it is easy to get to different folders and it is purple!!!! Great job!'
p1084
S'pos'
p1085
tp1086
a(S'Regular and ongoing issues with crashing and app stability... I think Ill come back when bugs have been fixes.'
p1087
S'neg'
p1088
tp1089
a(S'Finally .. Its an amazing app'
p1090
S'pos'
p1091
tp1092
a(S'Finally a great app to manage Yahoo! Email and replace the native app.'
p1093
S'pos'
p1094
tp1095
a(S'Great to use! I like'
p1096
S'pos'
p1097
tp1098
a(S'Quite a surprise from Yahoo, who seem to have ignored the iOS for quite a while. This is a super clean, fast and easy to use application, and I think one of the better third party web mail apps out there for iPhone.'
p1099
S'pos'
p1100
tp1101
a(S'Not to bad at all pointless haven a mail app on the phone now with this'
p1102
S'pos'
p1103
tp1104
a(S'Nice app'
p1105
S'pos'
p1106
tp1107
a(S'Stable, good speed and view of content and browsing.'
p1108
S'pos'
p1109
tp1110
a(S'Excellent. Very easy to use. No need to log in through computer.'
p1111
S'pos'
p1112
tp1113
a(S'Love it works well in Israel!!!!!'
p1114
S'pos'
p1115
tp1116
a(S'we miss the ability to delete or create new folder and its not good'
p1117
S'neg'
p1118
tp1119
a(S'rar file when attached, cant be opened from the app.'
p1120
S'neut'
p1121
tp1122
a(S'Good'
p1123
S'pos'
p1124
tp1125
a(S'So many apps now are universal for iPad too. Why cant this app  support it as well?'
p1126
S'neut'
p1127
tp1128
a(S'Easy and nice for the user'
p1129
S'pos'
p1130
tp1131
a(S'Guys, without support for business mail it is worth NOTHING. Got it?'
p1132
S'neg'
p1133
tp1134
a(S'like!!'
p1135
S'pos'
p1136
tp1137
a(S'Very good'
p1138
S'pos'
p1139
tp1140
a(S'Best GUI...'
p1141
S'pos'
p1142
tp1143
a(S'The new mail app is very fast and smooth.'
p1144
S'pos'
p1145
tp1146
a(S'From a company like Yahoo, this is unacceptable. Otherwise its a very decent app no doubt .'
p1147
S'both'
p1148
tp1149
a(S'I downloaded, logged in, deleted a few mails and logged off. After sometime, I got a new mail notification. I dont want to be bugged when logged off.'
p1150
S'neg'
p1151
tp1152
a(S'Thought it will support yahoo business mail but does not making the app useless clutter.'
p1153
S'neg'
p1154
tp1155
a(S'good work but i cant see yahoo chat in my messenger. any idea???'
p1156
S'both'
p1157
tp1158
a(S'Excellent app. Fast, fluid and very simple.'
p1159
S'pos'
p1160
tp1161
a(S'Been using google gmail for a long, installed yahoo mail app to try. surprisingly yahoo app is more refreshing than gmail ;)'
p1162
S'pos'
p1163
tp1164
a(S'Finally Yahoo Mail App Great Work!'
p1165
S'pos'
p1166
tp1167
a.