(lp0
(S'excellent#NR \n'
p1
S'pos\n'
p2
tp3
a(S'excellent#NR \n'
p4
S'pos\n'
p5
tp6
a(S'excellent#NR \n'
p7
S'pos\n'
p8
tp9
a(S'#NR \n'
p10
S'pos \n'
p11
tp12
a(S'amazingly#r#1 good#a#1 \n'
p13
S'pos\n'
p14
tp15
a(S'i#n#2 will#n#2 use#v#1 this#ND app#ND when#ND there#r#2 is#v#6 option#n#3 for#ND multiple#a#1 account#n#4 -#ND sorry#a#3 \n'
p16
S'neg\n'
p17
tp18
a(S'simply#NR suberb#ND \n'
p19
S'pos\n'
p20
tp21
a(S'excellent#a#1 application#n#3 i#n#2 like#n#2 it#n#1 very#r#1 simple#a#1 n#n#1 good#a#2 \n'
p22
S'pos\n'
p23
tp24
a(S'nice#a#1 apps#ND and#ND good#a#6 move#v#8 for#ND yahoo#n#2 \n'
p25
S'pos\n'
p26
tp27
a(S'wow#NR \n'
p28
S'pos\n'
p29
tp30
a(S'use#n#5 to#ND use#v#1 and#ND clean#v#1 interface#n#1 \n'
p31
S'pos\n'
p32
tp33
a(S'awsme#ND nd#n#1 vry#ND easy#a#6 \n'
p34
S'pos\n'
p35
tp36
a(S'nice#NR app#ND \n'
p37
S'pos\n'
p38
tp39
a(S'useful#NR \n'
p40
S'pos\n'
p41
tp42
a(S'awesome#NR app#ND \n'
p43
S'pos \n'
p44
tp45
a(S'great#a#3 interface#n#1 cool#a#4 feel#v#4 \n'
p46
S'pos\n'
p47
tp48
a(S'very#a#1 great#a#3 app#ND only#r#7 one#a#7 suggestion#n#2 i#n#1 cant#n#4 add#v#2 folder#n#1 in#a#2 the#ND email#n#1 \n'
p49
S'pos\n'
p50
tp51
a(S'best#r#1 mail#v#1 app#ND \n'
p52
S'pos\n'
p53
tp54
a(S'perfect#NR app#ND \n'
p55
S'pos\n'
p56
tp57
a(S'thanks#n#2 for#ND this#ND gr8#ND app#ND yahoo#n#2 was#v#1 my#ND first#a#1 mail#n#1 and_so#r#1 important#a#3 in#a#1 the#ND life#n#9 with#ND this#ND app#ND it#n#1 is#v#1 getting#v#12 again#r#1 its#n#1 importance#n#1 \n'
p58
S'pos\n'
p59
tp60
a(S'it#n#1 is#v#1 v#n#1 nice#a#2 \n'
p61
S'pos\n'
p62
tp63
a(S'lovely#NR app#ND \n'
p64
S'pos \n'
p65
tp66
a(S'great#NR app#ND \n'
p67
S'pos\n'
p68
tp69
a(S'fantastic#NR \n'
p70
S'pos\n'
p71
tp72
a(S'excellent#NR \n'
p73
S'pos\n'
p74
tp75
a(S'its#n#1 a#n#4 bliss#n#1 to#ND use#v#1 yahoomail#ND on#a#1 iphone#ND amp#n#1 ipad#ND \n'
p76
S'pos\n'
p77
tp78
a(S'easy#a#5 cool#v#3 and#ND friendly#a#1 the#ND only#r#7 issue#n#4 i#n#2 have#v#15 with#ND it#n#1 is#v#1 that#ND i#n#2 dont#ND get#v#1 notifications#n#2 when#ND i#n#2 recieve#ND an#n#1 email#n#1 to#ND a#n#4 folder#n#1 other_than#r#1 inbox#ND the#ND rest#v#6 is#v#12 great#a#3 \n'
p79
S'pos\n'
p80
tp81
a(S'so#r#8 cute#a#1 \n'
p82
S'pos\n'
p83
tp84
a(S'awesome#NR \n'
p85
S'pos\n'
p86
tp87
a(S'nice#NR \n'
p88
S'pos\n'
p89
tp90
a(S'awesome#NR \n'
p91
S'pos\n'
p92
tp93
a(S'very#r#1 slow#a#5 compared#v#1 to#ND iphone#ND mail#n#1 app#ND and#ND less#a#1 handy#a#2 \n'
p94
S'neg\n'
p95
tp96
a(S'thank_you#n#1 yahoo#n#3 for#ND your#ND new#a#1 and#ND awesome#a#1 app#ND you#ND are#v#1 the#ND best#a#1 we#ND always#r#1 want#v#1 new#a#1 apps#ND from#ND you#ND still#r#2 the#ND best#r#7 \n'
p97
S'pos\n'
p98
tp99
a(S'im#ND lovn#ND it#NR \n'
p100
S'pos\n'
p101
tp102
a(S'super#a#1 star#n#2 \n'
p103
S'pos\n'
p104
tp105
a(S'love#v#1 you#ND yahoo#n#2 u#n#2 are#v#1 my#ND first#a#5 love#n#1 bring#v#8 all#r#1 the#ND glory#n#3 back#v#7 great#a#3 app#ND \n'
p106
S'pos\n'
p107
tp108
a(S'v#n#4 good#a#3 \n'
p109
S'pos\n'
p110
tp111
a(S'nice#NR \n'
p112
S'pos\n'
p113
tp114
a(S'need#v#2 to#ND upgrade#v#3 \n'
p115
S'pos\n'
p116
tp117
a(S'super#NR dooper#ND \n'
p118
S'pos\n'
p119
tp120
a(S'very#a#2 useful#a#1 \n'
p121
S'pos\n'
p122
tp123
a(S'perfect#a#1 options#n#3 \n'
p124
S'pos\n'
p125
tp126
a(S'good#a#8 application#n#1 \n'
p127
S'pos\n'
p128
tp129
a(S'crashed#v#12 during#ND send#v#1 operation#n#7 after#a#1 that#ND i#n#2 wasnt#ND able#a#1 to#ND run#v#31 app#ND \n'
p130
S'neg\n'
p131
tp132
a(S'great#NR app#ND \n'
p133
S'pos\n'
p134
tp135
a(S'again#r#1 i#n#2 use#v#1 my#ND yahoo#n#2 mail#n#1 \n'
p136
S'pos\n'
p137
tp138
a(S'works#v#3 very_well#r#1 \n'
p139
S'pos\n'
p140
tp141
a(S'quick#a#4 and#ND simple#a#1 \n'
p142
S'pos\n'
p143
tp144
a(S'looks#v#2 much#a#1 better#a#1 than#ND apple#n#1 app#ND \n'
p145
S'pos\n'
p146
tp147
a(S'there#r#2 are#v#1 still#v#1 too#r#1 many#a#1 bugs#v#2 omg#ND \n'
p148
S'neg\n'
p149
tp150
a(S'i#n#2 think#v#3 it#n#1 is#v#6 very#a#2 useful#a#1 when#ND u#n#1 want#n#2 to#ND look_at#v#1 ur#n#1 e-mail#n#1 \n'
p151
S'pos\n'
p152
tp153
a(S'i#n#2 like#n#2 it#n#1 \n'
p154
S'pos\n'
p155
tp156
a(S'happy#a#1 with#ND it#n#1 \n'
p157
S'pos\n'
p158
tp159
a(S'recommendable#ND \n'
p160
S'pos\n'
p161
tp162
a(S'good#NR app#ND \n'
p163
S'pos\n'
p164
tp165
a(S'irie#ND \n'
p166
S'pos\n'
p167
tp168
a(S'very#a#1 reliable#a#3 rapid#a#1 notification#n#2 is#v#1 clear#a#1 geand#ND one#a#5 more#a#2 \n'
p169
S'pos\n'
p170
tp171
a(S'beautiful#NR \n'
p172
S'pos\n'
p173
tp174
a(S'ok#NR \n'
p175
S'pos\n'
p176
tp177
a(S'ok#NR \n'
p178
S'pos\n'
p179
tp180
a(S'awesome#NR \n'
p181
S'pos \n'
p182
tp183
a(S'excellent#NR app#ND \n'
p184
S'pos \n'
p185
tp186
a(S'even#n#1 exiting#v#3 the#ND application#n#4 it#n#1 is#v#1 getting#v#1 mens#n#1 \n'
p187
S'neg\n'
p188
tp189
a(S'very#r#1 simple#a#2 and#ND easy#a#1 to#ND use#v#1 i#n#2 recommend#v#1 \n'
p190
S'pos\n'
p191
tp192
a(S'very#a#2 useful#a#1 and#ND simple#n#2 \n'
p193
S'pos\n'
p194
tp195
a(S'an#n#1 excellent#a#1 application#n#4 of#ND e-mail#n#1 easy#a#1 lightweight#a#1 intuitive#a#2 and#ND fast#a#2 \n'
p196
S'pos\n'
p197
tp198
a(S'good#a#1 app#ND with#ND it#n#1 you#ND can#v#2 access#n#1 multiple#a#1 accounts#n#4 from#ND yahoo#n#2 with#ND more#a#1 facilities#n#1 than#ND the#ND web#n#4 i#n#2 recommend#v#3 it#n#1 \n'
p199
S'pos\n'
p200
tp201
a(S'while#n#1 there#r#2 is#v#1 no#a#1 possibility#n#3 to#ND mark#n#2 several#a#1 mails#v#2 at_once#r#1 you#ND can#v#2 not#r#1 evaluate#v#2 as_well#r#1 \n'
p202
S'neg\n'
p203
tp204
a(S'fast#a#2 and#ND well#r#4 structured#v#1 \n'
p205
S'pos \n'
p206
tp207
a(S'fast#NR \n'
p208
S'pos\n'
p209
tp210
a(S'very#r#1 good#a#1 this#ND app#ND much#r#1 better#a#1 than#ND the#ND application#n#1 of#ND native#a#1 email#n#1 on#a#2 the#ND iphone#ND \n'
p211
S'pos\n'
p212
tp213
a(S'fast#a#2 and#ND well#r#4 structured#v#1 \n'
p214
S'pos\n'
p215
tp216
a(S'app#ND pleasant#a#1 and#ND quick#r#1 \n'
p217
S'pos\n'
p218
tp219
a(S'congratulations#n#2 to#ND the#ND programmer#n#1 \n'
p220
S'pos\n'
p221
tp222
a(S'quick#a#2 and#ND practical#a#1 \n'
p223
S'pos\n'
p224
tp225
a(S'this#ND app#ND has#v#1 definitely#r#1 surprised#v#1 me#n#1 loads#n#6 email#n#1 very#a#1 quick#r#1 and#ND it#n#1 looks#v#1 good#a#1 \n'
p226
S'pos\n'
p227
tp228
a(S'good#a#15 app#ND easy#a#4 intuitive#a#1 q#n#1 penalty#n#1 boxes#n#1 are#v#6 duplicated#v#2 \n'
p229
S'pos\n'
p230
tp231
a(S'very#r#1 good#a#1 loved#a#1 it#n#1 \n'
p232
S'pos\n'
p233
tp234
a(S'fast#a#1 and#ND very#r#1 good#r#2 \n'
p235
S'pos\n'
p236
tp237
a(S'efficient#NR \n'
p238
S'pos\n'
p239
tp240
a(S'it#n#1 was#v#1 time#n#3 that#ND was#v#1 the#ND will#n#3 of#ND yahoo#n#3 mail#v#2 for#ND ios#n#2 now#r#3 you#ND just#r#5 need#v#1 the#ND yahoo#n#1 answer#v#1 on#a#2 ios#n#2 \n'
p241
S'pos\n'
p242
tp243
a(S'user#n#2 friendly#a#3 can#v#2 be#v#1 faster#a#1 to#ND load#n#6 \n'
p244
S'pos\n'
p245
tp246
a(S'very#r#2 top#n#1 the#ND app#ND practical#a#1 and#ND objective#a#4 \n'
p247
S'pos\n'
p248
tp249
a(S'well#a#1 efficient#a#1 and#ND lightweight#a#1 \n'
p250
S'pos\n'
p251
tp252
a(S'great#a#1 app#ND loads#n#1 e-mail#n#1 faster#a#10 than#ND mail#n#1 easier#a#1 to#ND navigate#v#1 between#r#1 folders#n#1 \n'
p253
S'pos\n'
p254
tp255
a(S'very#r#1 good#r#2 \n'
p256
S'pos\n'
p257
tp258
a(S'who#n#1 would#ND say#v#1 pleasantly#r#1 surprised#v#1 \n'
p259
S'pos\n'
p260
tp261
a(S'fast#a#1 and#ND practical#a#1 \n'
p262
S'pos\n'
p263
tp264
a(S'great#a#3 app#ND easy#a#1 and#ND very#r#1 useful#a#1 in#n#2 everyday#a#1 life#n#9 \n'
p265
S'pos\n'
p266
tp267
a(S'first#a#1 app#ND i#n#2 feel#v#4 an#n#1 obligation#n#1 to#ND evaluate#v#2 and#ND give#v#3 5#n#1 stars#n#5 \n'
p268
S'pos\n'
p269
tp270
a(S'this#ND new#a#1 version#n#2 was#v#6 very#a#2 good#a#8 application#n#3 i#n#1 recommend#v#1 \n'
p271
S'pos\n'
p272
tp273
a(S'no#a#1 ipad#ND platform#n#1 terrible#a#1 \n'
p274
S'neg\n'
p275
tp276
a(S'this#ND app#ND is#v#1 good#a#1 better#a#1 than#ND most#r#3 mail#n#1 apps#ND but#r#1 far#a#2 inferior#a#2 to#ND the#ND native#a#1 ios#n#1 mail#n#1 i#n#2 fail#v#5 to#ND see#v#17 the#ND need#v#1 for#ND this#ND yahoo#n#2 mail#n#1 client#n#2 the#ND native#a#1 app#ND benefits#v#1 from#ND ios#n#1 push#n#5 notification#n#2 which#ND are#v#1 near#a#1 instant#n#2 as_well#r#1 as#n#2 the#ND notification#n#2 center#n#6 it#n#1 allows#v#2 the#ND user#n#3 to#ND see#v#5 and#ND access#n#2 his#ND custom#n#2 folders#n#1 and#ND do#v#2 almost#r#1 everything#ND he#n#1 can#n#5 from#ND a#n#4 pc#n#1 browser#n#2 \n'
p277
S'neg\n'
p278
tp279
a(S'their#ND needs#v#2 to#ND be#v#13 a#n#5 way#n#5 to#ND easily#r#3 delete#v#1 spam#n#2 \n'
p280
S'neg\n'
p281
tp282
a(S'not#r#1 every#a#1 network#n#1 allows#v#3 access#v#2 to#ND my#ND emails#n#1 through#a#2 my#ND iphone#ND mailbox#n#1 this#ND is#v#1 the#ND perfect#a#1 app#ND that#ND i#n#2 have#v#1 been#v#1 waiting#v#1 for#ND i#n#2 can#v#2 always#r#4 access#n#4 my#ND yahoo#n#3 mail#n#1 easily#r#3 without#ND any#a#1 restrictions#n#1 on#r#1 networks#n#5 that#ND i#n#1 am#v#13 connecting#v#7 to#ND \n'
p283
S'pos\n'
p284
tp285
a(S'this#ND app#ND is#v#1 great#a#3 i#n#2 just#a#3 wish#v#3 it#n#1 had#v#15 an#n#1 option#n#1 for#ND vip#n#1 mail#n#1 alerts#n#1 like#a#3 the#ND iphone#ND mail#v#2 app#ND if#ND it#n#1 did#v#9 i#n#2 would#ND give#v#12 it#n#1 5#n#1 stars#n#5 \n'
p286
S'pos\n'
p287
tp288
a(S'great#a#2 app#ND a#n#4 very#r#1 good#a#5 start#n#8 \n'
p289
S'pos\n'
p290
tp291
a(S'i#n#1 finally#r#1 succumbed#v#1 to#ND incessant#a#1 pressure#n#1 to#ND install#v#1 the#ND damned#r#1 thing#n#11 even#a#3 though#r#1 i#n#2 did#v#9 not#r#1 ask_for_it#v#1 or#n#2 want#n#2 it#n#1 and#ND i#n#2 hate#v#1 when#ND yahoo#n#1 blocks#n#1 the#ND bottom#n#3 section#n#6 of#ND iphone#ND formatted#v#3 articles#n#1 so#r#9 that#ND it#n#1 is#v#1 impossible#a#1 to#ND view#n#8 the#ND desktop#n#2 version#n#4 it#n#1 is#v#1 okay#v#1 i#n#2 guess#v#3 but#r#1 i#n#2 hate#n#1 hate#n#1 being#v#1 badgered#v#2 to#ND download#v#1 stuff#n#1 i#n#1 do#v#9 not#r#1 ask_for#v#1 \n'
p292
S'neg\n'
p293
tp294
a(S'quick#a#6 and#ND easy#r#1 to#ND use#v#1 \n'
p295
S'pos\n'
p296
tp297
a(S'thanks#n#2 yahoo#n#3 for#ND this#ND app#ND finally#r#2 u#n#2 decided#v#3 to#ND have#v#13 a#n#4 great#a#3 app#ND easy#r#3 simple#a#2 and#ND fast#a#1 \n'
p298
S'pos\n'
p299
tp300
a(S'i#n#2 think#v#3 it#n#1 is#v#1 great#a#3 \n'
p301
S'pos\n'
p302
tp303
a(S'like#n#2 it#n#1 -makes#ND it#n#1 easier#a#3 to#ND access#n#5 my#ND mail#n#1 \n'
p304
S'pos\n'
p305
tp306
a(S'hello#n#1 can#v#2 you#ND add#v#1 a#n#4 support#v#2 for#ND more_than#a#1 one#n#1 yahoo#n#2 account#n#1 i#n#2 have#n#1 my#ND self#n#2 3#n#1 that#ND i#n#2 want#n#2 to#ND use#v#1 here#r#4 \n'
p307
S'neg\n'
p308
tp309
a(S'i#n#2 like#n#2 it#n#1 does#v#9 what#ND i#n#2 need#v#1 it#n#1 to#ND \n'
p310
S'pos\n'
p311
tp312
a(S'good_enough#a#1 not#r#1 many#a#1 bells#n#1 or#n#1 whistles#n#4 but#r#1 it#n#1 works#n#1 \n'
p313
S'pos\n'
p314
tp315
a(S'excellent#a#1 mail#v#1 app#ND best#a#6 ive#ND seen#v#8 \n'
p316
S'pos\n'
p317
tp318
a(S'i#n#2 think#v#3 think#v#3 this#ND app#ND is#v#1 really#r#1 great#a#3 even#a#3 though#r#1 its#n#1 not#r#1 an#n#1 iphone#ND it#n#1 works#n#1 great#a#4 on#a#2 the#ND wifi#n#1 \n'
p319
S'pos\n'
p320
tp321
a(S'works#v#11 great#a#4 \n'
p322
S'pos\n'
p323
tp324
a(S'the#ND app#ND doesnt#ND let#v#3 you#ND to#ND choose#v#1 different#a#1 notification#n#1 sound#v#4 and#ND the#ND one#a#5 that#ND developers#n#2 chose#v#1 is#v#1 very#r#1 annoying#v#1 and#ND confusing#v#2 \n'
p325
S'neg\n'
p326
tp327
a(S'it#n#1 took#v#26 too#r#1 long#a#1 but#r#1 worth#n#2 it#n#1 i#n#2 love#n#1 the#ND app#ND life_saver#n#1 \n'
p328
S'pos\n'
p329
tp330
a(S'didnt#ND use#n#3 it#n#1 much#a#1 because#ND it#n#1 only#a#1 handles#v#1 one#n#2 email#n#1 account#n#2 at_a_time#r#1 and#ND i#n#2 have#v#1 two#n#1 \n'
p331
S'neg\n'
p332
tp333
a(S'i#n#1 still#n#1 cant#n#3 get_it#v#1 to#ND work#v#24 all#a#1 i#n#2 wanted#v#2 was#v#13 to#ND mark#n#5 some#a#1 mail#n#1 as#n#1 spam#n#1 but#r#1 now#n#1 im#ND in#a#1 an#n#1 even#v#2 worse#a#2 position#v#2 than#ND before#r#2 \n'
p334
S'neg\n'
p335
tp336
a(S'does#v#9 not#r#1 have#v#13 yahoo#n#1 calendar#n#2 \n'
p337
S'neg\n'
p338
tp339
a(S'this#ND app#ND is#v#1 great#a#4 but#r#1 please#v#1 make_it#v#1 so#r#3 i#n#2 can#n#1 use#v#2 multiple#a#1 accounts#n#3 like#n#2 the#ND default#v#1 mail#n#1 app#ND \n'
p340
S'pos\n'
p341
tp342
a(S'spam#n#2 filtering#v#3 is#v#6 very#a#2 lacking#v#1 it#n#1 does#v#9 not#r#1 work#v#3 very_well#r#1 shame#v#3 yahoo#n#2 \n'
p343
S'neg\n'
p344
tp345
a(S'this#ND was#v#1 long#a#1 overdue#a#1 downloaded#v#1 it#n#1 today#n#2 and_so#r#1 far#r#3 so#r#4 good#a#1 no#r#2 issues#n#7 quite#r#2 good#a#1 interface#n#2 \n'
p346
S'pos\n'
p347
tp348
a(S'yahoo#n#2 is#v#1 number_one#n#2 there#r#3 work#n#3 professional#a#4 team#n#1 \n'
p349
S'pos\n'
p350
tp351
a(S'keeps#v#15 crashing#v#3 all_the_time#r#1 \n'
p352
S'neg\n'
p353
tp354
a(S'great#NR app#ND \n'
p355
S'pos\n'
p356
tp357
a(S'very#a#2 basic#a#2 features#n#1 that#ND rarely#r#1 work#n#7 \n'
p358
S'neg\n'
p359
tp360
a(S'with#ND web#n#4 we#ND easily#r#3 access#n#1 the#ND calendar#n#2 with#ND this#ND apps#ND the#ND calendar#v#1 is#v#12 missing#v#9 from#ND the#ND apps#ND list#n#1 \n'
p361
S'neg\n'
p362
tp363
a(S'does#v#1 the#ND job#v#1 \n'
p364
S'pos\n'
p365
tp366
a(S'just#a#1 downloaded#v#1 this#ND app#ND a_few#a#1 days#n#2 ago#a#1 and#ND i#n#1 am#v#1 enjoying#v#2 it#n#1 \n'
p367
S'pos\n'
p368
tp369
a(S'its#n#1 the#ND best#a#1 but#r#1 i#n#2 wait#v#3 to#ND see#v#8 best#r#4 version#n#6 of#ND the#ND best#r#5 \n'
p370
S'pos\n'
p371
tp372
a(S'hmmm#ND so_far#r#1 not#r#1 pleased#a#1 with#ND this#ND app#ND failed#v#1 to#ND download#v#1 message#n#2 is#v#1 becoming#v#2 a#n#4 frequent#v#1 notice#n#5 \n'
p373
S'neg\n'
p374
tp375
a(S'i#n#2 have#v#6 used#v#1 other#a#1 mail#n#1 apps#ND but#r#1 thus#r#1 one#a#7 is#v#1 by_far#r#1 the#ND best#a#1 \n'
p376
S'pos\n'
p377
tp378
a(S'i#n#2 like#n#2 it#n#1 it#n#1 is#v#1 awesome#a#1 \n'
p379
S'pos\n'
p380
tp381
a(S'this#ND is#v#1 a#n#5 great#a#4 app#ND love#n#1 the#ND functionality#n#1 couldnt#ND log-in#v#1 on#a#1 lte#ND needed#v#1 wifi#n#1 overall#n#2 great#a#3 \n'
p382
S'pos\n'
p383
tp384
a(S'no#a#1 problems#n#2 whatsoever#a#1 \n'
p385
S'pos\n'
p386
tp387
a(S'this#ND app#ND is#v#1 awestruck#a#1 it#n#1 really#r#2 helped#v#1 me#n#1 keep_up#v#2 to_date#r#1 with#ND my#ND email#v#1 \n'
p388
S'pos\n'
p389
tp390
a(S'good#a#1 alternate#v#4 app#ND when#ND corporate#a#1 mail#n#1 restriction#n#1 in_place#r#1 \n'
p391
S'pos\n'
p392
tp393
a(S'i#n#2 like#a#4 the#ND yahoo#n#2 mail#v#2 app#ND the#ND only#a#1 problem#n#2 i#n#2 have#v#1 is#v#1 that#ND all#r#1 my#ND folders#n#1 in#a#2 my#ND inbox#ND is#v#1 in#a#1 doubles-please#ND fix#v#10 it#n#1 other_than#r#1 that#ND its#n#1 great#a#6 to#ND use#v#3 \n'
p394
S'pos\n'
p395
tp396
a(S'it#n#1 works#n#1 great#a#4 \n'
p397
S'pos\n'
p398
tp399
a(S'better#r#4 than#ND before#r#2 \n'
p400
S'pos\n'
p401
tp402
a(S'its#n#1 great#a#4 \n'
p403
S'pos\n'
p404
tp405
a(S'i#n#2 wish#n#3 the#ND app#ND would#ND allow#v#2 more_than#a#1 one#n#1 yahoo#n#2 mail#n#1 to#ND be#v#1 set_up#v#5 on_it#r#1 i#n#2 have#v#18 multiple#a#1 yahoo#n#3 mail#n#1 accounts#n#2 for#ND different#a#1 purposes#n#1 i#n#2 wish#n#3 i#n#2 could#ND manage#v#3 them#ND all_in#a#1 this#ND app#ND \n'
p406
S'neg\n'
p407
tp408
a(S'a#n#5 zero#a#2 rating#v#2 for#ND me#n#1 cant#n#1 seem#v#1 to#ND get_into#v#5 my#ND business#n#6 account#v#1 which#ND is#v#13 what#ND i#n#2 use#v#3 have#v#6 use#v#3 the#ND web_browser#n#1 to#ND do_it#v#1 \n'
p409
S'neg\n'
p410
tp411
a(S'no#a#1 issue#n#7 and#ND i#n#2 love#n#1 it#n#1 \n'
p412
S'pos\n'
p413
tp414
a(S'i#n#1 love#n#1 it#n#1 \n'
p415
S'pos\n'
p416
tp417
a(S'dont#ND like#n#2 how#ND it#n#1 goes#v#19 one#a#3 way#n#2 chronologically#r#1 so#r#2 if#ND i#n#3 mark#n#5 one#a#4 as#n#4 unread#a#1 then#a#1 delete#v#1 the#ND next#a#1 one#a#5 it#n#1 will#n#3 then#r#1 take#v#18 me#n#1 back#n#5 to#ND the#ND unread#a#1 one#n#1 and#ND i#n#2 have#v#5 to#ND mark#n#9 it#n#1 as#n#4 unread#a#1 every#a#1 time#n#5 if#ND i#n#2 want#v#1 that#ND label#v#3 to#ND stay#n#1 doesnt#ND feel#v#4 very#r#1 intuitive#a#2 \n'
p418
S'neg\n'
p419
tp420
a(S'this#ND app#ND wont#n#1 even#r#3 open#v#6 for#ND me#n#1 it#n#1 works#n#1 intermittently#r#1 im#ND removing#v#1 it#n#1 \n'
p421
S'neg\n'
p422
tp423
a(S'good#a#1 for#ND iphone#ND useless#a#1 for#ND ipad#ND get_on#v#7 your#ND horses#n#1 \n'
p424
S'neg\n'
p425
tp426
a(S'very#r#1 good#a#1 app#ND for#ND checking#v#3 yahoo#n#1 email#v#1 \n'
p427
S'pos\n'
p428
tp429
a(S'crashes#v#5 exits#v#2 immediately#r#1 after#r#1 start_up#v#2 very#r#1 unreliable#a#2 yahoo#n#2 very#r#1 disappointing#a#1 \n'
p430
S'neg\n'
p431
tp432
a(S'like#n#2 it#n#1 long_time#n#1 was#v#1 waiting#v#3 for#ND such#a#1 app#ND \n'
p433
S'pos\n'
p434
tp435
a(S'log_on#v#1 needs#v#1 a#n#4 remember#v#3 me#n#1 button#n#2 not#r#1 just#a#1 go_to#v#1 my#ND email#n#1 right_away#r#2 i#n#3 like#a#1 having#v#18 the#ND option#n#1 to#ND put#n#1 it#n#1 in#n#3 or#n#1 not#r#1 \n'
p436
S'neg\n'
p437
tp438
a(S'now#r#2 it#n#1 is#v#1 perfect#a#1 \n'
p439
S'pos\n'
p440
tp441
a(S'finally#r#1 an#n#1 app#ND for#ND yahoo#n#3 mail#n#1 hopefully#r#1 in#a#2 your#ND next#a#3 update#v#2 we#ND can#v#2 have#v#6 it#n#1 optimized#v#2 for#ND the#ND ipad#ND and#ND support#v#11 for#ND multiple#a#1 ids#n#2 \n'
p442
S'pos\n'
p443
tp444
a(S'i#n#2 have#v#15 to#ND email#n#1 add#v#1 from#ND yahoo#n#2 but#r#1 i#n#2 can#v#2 only#r#4 view#n#7 one#a#7 account#n#8 \n'
p445
S'neg\n'
p446
tp447
a(S'function-wise#ND the#ND app#ND works#v#11 well#r#13 i#n#1 able#a#4 to#ND organize#v#4 my#ND mail#v#1 simply#r#2 however#r#1 startup#n#1 time#n#5 until#ND i#n#2 actually#r#4 see#v#15 my#ND listing#v#1 of#ND mail#n#1 has#v#15 greatly#r#1 increased#v#1 i#n#2 see#n#1 the#ND purple#a#2 yahoo#n#2 splash#n#1 screen#n#8 for#ND at_least#r#2 7#n#1 secs#n#1 used_to#a#1 be#v#1 1#n#1 or#n#2 2#n#1 \n'
p448
S'neg\n'
p449
tp450
a(S'i#n#1 loaded#a#4 this#ND app#ND to#ND hopefully#r#2 be#v#1 able#a#4 to#ND mark#n#4 certain#a#2 emails#n#1 as#n#1 not#r#1 spam#n#1 so#r#8 they#ND would#ND come_to#v#2 my#ND inbox#ND no#a#1 such#a#1 luck#n#2 please#r#1 put#v#3 that#ND feature#v#1 on#a#2 here#r#4 \n'
p451
S'neg\n'
p452
tp453
a(S'i#n#2 wish#n#4 they#ND had#v#6 an#n#1 option#n#1 for#ND remembering#n#1 the#ND user#n#3 name#n#1 all#a#1 we#ND need#v#2 to#ND type#n#1 is#v#1 just#a#1 the#ND password#n#1 only#a#1 \n'
p454
S'neg\n'
p455
tp456
a(S'after#r#1 installing#v#1 this#ND app#ND someone#n#1 hacked#v#2 into#ND my#ND account#n#2 and#ND sent#n#1 a#n#4 bunch#n#3 of#ND emails#n#1 to#ND my#ND contacts#v#2 i#n#1 dont#ND even#r#1 know#v#6 what#ND was#v#1 sent#v#1 im#ND so#r#3 mad#a#1 had#v#11 to#ND change#v#9 everything#ND dont#ND install#v#1 \n'
p457
S'neg\n'
p458
tp459
a(S'crashes#v#3 whenever#ND i#n#3 try#v#6 to#ND reply#v#1 to#ND an#n#1 email#n#1 makes#v#3 email#n#1 font#n#1 tiny#a#1 the#ND other#a#1 things#n#2 look#v#9 good#a#1 though#r#1 \n'
p460
S'neg\n'
p461
tp462
a(S'it#n#1 would#ND be#v#1 perfect#a#1 if#ND the#ND log_in#v#1 section#n#9 has#v#18 remember#v#2 me#n#1 options#n#2 \n'
p463
S'neg\n'
p464
tp465
a(S'at_least#r#2 so_far#r#3 far#n#2 i#v#1 was#v#1 a_lot#r#1 lot#ND of#n#2 problems#ND with#n#3 yahoo#v#1 mail#a#2 in#n#1 safari#ND and#ND havent#r#3 yet#v#4 experienced#ND them#ND with#ND this#ND \n'
p466
S'pos\n'
p467
tp468
a(S'excellent#NR \n'
p469
S'pos\n'
p470
tp471
a(S'was#v#1 excited#v#6 about#r#1 this#ND app#ND as#n#6 i#n#3 have#v#2 not#r#1 been#v#1 able#a#4 to#ND access#n#5 my#ND yahoo#n#3 mail#n#1 for#ND 2#n#1 months#n#1 on#a#2 my#ND iphone#ND 5#n#1 however#r#4 quite#r#3 disappointed#v#1 as#n#6 i#n#3 keep#v#20 getting#v#21 the#ND authentication#n#2 failed#v#5 error#n#1 message#n#2 any#a#1 solutions#n#2 \n'
p472
S'neg\n'
p473
tp474
a(S'complete#NR \n'
p475
S'pos\n'
p476
tp477
a(S'i#n#1 love#v#3 the#ND setting#v#17 and#ND its#n#1 simple#n#2 \n'
p478
S'pos\n'
p479
tp480
a(S'only#a#1 printer#n#1 is#v#1 not#r#1 easy#a#1 \n'
p481
S'neg\n'
p482
tp483
a(S'great#a#3 app#ND try#n#1 it#n#1 its#n#1 worth#n#2 it#n#1 \n'
p484
S'pos\n'
p485
tp486
a(S'very#r#1 smooth#a#4 beautiful#a#1 ui#ND i#n#2 love#n#1 this#ND app#ND personally#r#3 \n'
p487
S'pos\n'
p488
tp489
a(S'really#r#3 something#ND u#n#2 should#ND come_up#v#3 wid#ND earlier#r#1 \n'
p490
S'neg\n'
p491
tp492
a(S'was#v#1 great#a#3 initially#r#1 but#r#1 now#n#1 it#n#1 wont#n#1 open#a#16 it#n#1 crashes#v#11 all_the_time#r#1 please#v#3 fix#n#5 the#ND bugs#n#5 \n'
p493
S'neg\n'
p494
tp495
a(S'incorrect#a#1 refreshed#v#4 content#n#5 \n'
p496
S'neg\n'
p497
tp498
a(S'the#ND app#ND looks#v#2 nice#a#3 but#r#1 im#ND now#n#1 stuck#v#16 in_all#r#1 contacts#v#2 and#ND theres#NR no#a#1 way#n#2 to#ND escape#n#5 and#ND get_back#v#2 to#ND my#ND mailboxes#n#1 ill#a#1 uninstall#ND and#ND reinstall#v#1 but#r#1 still#v#2 -#ND not#r#1 a#n#6 great#a#4 first#a#1 impression#n#2 \n'
p499
S'neg\n'
p500
tp501
a(S'would#ND give#v#38 zero#a#1 stars#n#1 if#ND i#n#2 could#ND doesnt#ND work#v#10 keeps#v#20 showing#v#2 incorrect#a#3 number#n#10 of#ND emails#v#1 unread#a#1 and#ND sporadically#r#1 will#n#2 not#r#1 show#v#4 current#a#1 emails#n#1 basic#a#1 stuff#n#4 and#ND they#ND cant#n#1 get_it#v#1 working#v#24 -#ND no#a#1 wonder#n#3 yahoo#n#1 is#v#1 a#n#5 shadow#n#3 of#ND its#n#1 former#a#3 self#n#2 \n'
p502
S'neg\n'
p503
tp504
a(S'better#v#3 then#n#1 just#r#1 having#v#14 it#n#1 as#n#4 a#n#4 mail#v#2 but#r#1 refreshing#v#1 itself#ND is#v#1 not#r#1 good#a#3 \n'
p505
S'neg\n'
p506
tp507
a(S'so_far#r#2 im#ND loving#a#1 this#ND app#ND its#n#1 much#a#1 more#a#1 cooperative#a#2 than#ND the#ND mail#n#1 ap#ND that#ND came#v#2 on#a#1 my#ND cell#n#2 originally#r#3 and#ND i#n#2 have#v#2 not#r#1 had#v#6 any#a#1 problems#n#2 with#ND the#ND services#n#6 \n'
p508
S'pos\n'
p509
tp510
a(S'yahoo#n#3 mail#n#1 is#v#1 the#ND best#a#1 email#v#1 version#n#6 i#n#3 ever#r#2 used#a#2 better#a#5 than#ND others#ND \n'
p511
S'pos\n'
p512
tp513
a(S'nice#5\n'
p514
S'pos\n'
p515
tp516
a(S'its#n#1 not#r#1 password#n#1 protected#v#1 and#ND you#ND cannot#ND sign_up#v#1 more_than#a#1 one#a#7 account#n#8 \n'
p517
S'neg\n'
p518
tp519
a(S'does#v#9 not#r#1 bring#v#8 anything#ND more#a#2 on#r#1 my#ND iphone#ND \n'
p520
S'neg\n'
p521
tp522
a(S'i#n#2 thanks#n#2 it#n#1 work#n#1 better#a#14 now#r#5 \n'
p523
S'pos\n'
p524
tp525
a(S'better#NR \n'
p526
S'pos\n'
p527
tp528
a(S'still#v#1 dont#ND know#v#3 how#ND to#ND add#v#3 a#n#5 second#n#1 yahoo#n#1 account#n#4 support#v#8 team#n#1 at#n#1 yahoo#n#2 do#v#9 not#r#1 even#r#1 know#v#6 about#r#1 the#ND app#ND well#a#1 done#a#1 \n'
p529
S'neg\n'
p530
tp531
a(S'i#n#2 like#n#2 it#n#1 you#ND can#n#1 add#v#1 photos#n#1 and#ND the#ND layout#n#1 is#v#4 pretty#r#1 \n'
p532
S'pos\n'
p533
tp534
a(S'while#n#1 app#ND itself#ND looks#v#1 neat#a#5 it#n#1 crashes#v#11 all_the_time#r#1 i#n#1 hope#n#4 bugs#n#2 will#n#3 be#v#1 fixed#v#1 soon#r#1 as#r#1 if_not#r#1 i#n#2 will#n#2 probably#r#2 choose#v#1 to#ND delete#v#1 the#ND app#ND altogether#r#1 from#ND my#ND phone#n#1 \n'
p535
S'neg\n'
p536
tp537
a(S'ui#ND good#a#1 unfortunately#r#1 all#a#1 custom#n#1 folders#n#1 were#v#6 duplicated#v#2 \n'
p538
S'neg\n'
p539
tp540
a(S'quite#r#2 useful#a#1 \n'
p541
S'pos\n'
p542
tp543
a(S'just#a#1 kick#n#2 option#n#1 for#ND unread#a#1 emails#n#1 \n'
p544
S'neg\n'
p545
tp546
a(S'simply#r#2 great#a#4 \n'
p547
S'pos\n'
p548
tp549
a(S'nothing#n#1 to#ND say#v#1 just#a#1 spectacular#a#3 \n'
p550
S'pos\n'
p551
tp552
a(S'having#v#18 trouble#n#6 with#ND mailbox#n#1 deleted#v#1 emails#n#1 \n'
p553
S'neg\n'
p554
tp555
a(S'its#n#1 a#n#5 real#a#2 mail#v#1 can#v#2 do#v#9 anything#ND \n'
p556
S'pos\n'
p557
tp558
a(S'like#v#5 to#ND hope#v#2 that#ND more_and_more#r#1 advantage#n#1 of#ND future#a#2 upgrades#v#3 \n'
p559
S'pos\n'
p560
tp561
a(S'clear#v#24 deleted#v#1 items#n#1 will#n#3 get_stuck#v#1 and_then#r#1 flash_back#v#1 to#ND need#v#1 secondary#a#1 open#a#16 the#ND delete#v#1 to#ND succeed#v#1 \n'
p562
S'neg\n'
p563
tp564
a(S'this#ND app#ND cannot#ND add#v#1 attached#v#1 file#n#1 as#n#3 pc#n#1 version#n#2 only#a#1 can#v#2 add#v#1 photo#n#1 annex#n#1 hope#n#4 can#n#5 upgrade#v#3 it#n#1 \n'
p565
S'neg\n'
p566
tp567
a(S'love#NR this#ND app#ND \n'
p568
S'pos\n'
p569
tp570
a(S'useful#NR \n'
p571
S'pos\n'
p572
tp573
a(S'nice#NR \n'
p574
S'pos\n'
p575
tp576
a(S'very#r#1 good_and#r#1 very#r#1 convenient#a#1 \n'
p577
S'pos\n'
p578
tp579
a(S'this#ND app#ND is#v#1 fantastic#a#2 \n'
p580
S'pos\n'
p581
tp582
a(S'this#ND thing#n#10 is#v#1 rubbish#n#1 it#n#1 crashes#v#12 a_lot#r#1 and#ND cant#n#3 send#v#6 messages#n#2 to#ND save#v#6 its#n#1 life#n#9 please#v#1 take#v#28 it#n#1 from#ND me#n#1 if#ND you#ND just#a#1 installed#v#1 ios6#ND dont#ND bother#v#2 downloading#v#1 this#ND thing#n#12 \n'
p583
S'neg\n'
p584
tp585
a(S'trial#n#4 find#v#4 it#n#1 very#r#1 convenient#a#1 \n'
p586
S'pos\n'
p587
tp588
a(S'very#r#1 satisfied#v#2 \n'
p589
S'pos\n'
p590
tp591
a(S'like#a#3 oh#n#1 \n'
p592
S'pos\n'
p593
tp594
a(S'perfects#NR \n'
p595
S'pos\n'
p596
tp597
a(S'yahoo#n#3 will#v#2 make#v#8 a#n#4 comeback#n#1 \n'
p598
S'pos\n'
p599
tp600
a(S'great#NR \n'
p601
S'pos\n'
p602
tp603
a(S'i#n#2 like#n#2 it#n#1 its#n#1 very#r#1 good#n#4 app#ND for#ND email#n#1 \n'
p604
S'pos\n'
p605
tp606
a(S'very_fast#r#1 amp#n#1 convenient#a#1 to#ND use#n#1 \n'
p607
S'pos\n'
p608
tp609
a(S'give#v#11 you#ND five#n#3 \n'
p610
S'pos\n'
p611
tp612
a(S'is#v#1 indeed#r#2 my#ND favorite#n#2 mailbox#n#2 \n'
p613
S'pos\n'
p614
tp615
a(S'i#n#1 love#n#1 it#n#1 \n'
p616
S'pos\n'
p617
tp618
a(S'year#NR \n'
p619
S'pos\n'
p620
tp621
a(S'is#v#1 good#a#1 we#ND must#n#1 support#n#10 yahoo#n#2 \n'
p622
S'pos\n'
p623
tp624
a(S'good#NR \n'
p625
S'pos\n'
p626
tp627
a(S'very#r#1 easy#a#1 to#ND use#n#1 convenient#a#1 \n'
p628
S'pos\n'
p629
tp630
a(S'app#ND yahoo#n#3 mail#n#1 uses#v#1 really#r#4 easy#r#1 \n'
p631
S'pos\n'
p632
tp633
a(S'super#NR \n'
p634
S'pos\n'
p635
tp636
a(S'there#r#2 are#v#1 problems#n#2 opening#n#13 attachments#n#4 even#a#3 though#r#1 i#n#2 have#v#15 pdf#ND applications#n#4 for#ND office#n#2 \n'
p637
S'neg\n'
p638
tp639
a(S'very#r#1 good#a#15 easy#a#4 to#ND use#n#3 practical#a#4 \n'
p640
S'pos\n'
p641
tp642
a(S'excellent#NR \n'
p643
S'pos\n'
p644
tp645
a(S'the#ND app#ND closes#v#5 after#r#1 a_few#a#1 seconds#n#2 \n'
p646
S'neg\n'
p647
tp648
a(S'excellent#NR app#ND \n'
p649
S'pos\n'
p650
tp651
a(S'ok#NR \n'
p652
S'pos\n'
p653
tp654
a(S'very#r#1 good#r#2 \n'
p655
S'pos\n'
p656
tp657
a(S'it#n#1 looks#v#1 good#a#1 \n'
p658
S'pos\n'
p659
tp660
a(S'i#n#1 love#n#1 it#n#1 \n'
p661
S'pos\n'
p662
tp663
a(S'a#n#4 mail#n#2 app#ND and#ND not#r#1 optimized#v#2 for#ND ipad#ND \n'
p664
S' neg\n'
p665
tp666
a(S'amazing#NR \n'
p667
S'pos\n'
p668
tp669
a(S'it#n#1 works#n#1 very_well#r#1 \n'
p670
S'pos\n'
p671
tp672
a(S'gimme#ND ipad#ND \n'
p673
S'neg\n'
p674
tp675
a(S'why#n#1 there#r#2 is#v#1 still#r#1 the#ND indicator#n#2 present#n#2 for#ND new#r#1 unopen#a#1 mails#n#1 although#ND no#r#2 new#a#5 mails#n#5 are#v#6 there#r#2 to#ND read#v#3 \n'
p676
S'neg\n'
p677
tp678
a(S'super#a#2 app#ND missing#v#1 only#r#3 the#ND photo#n#1 attachments#n#2 \n'
p679
S'pos\n'
p680
tp681
a(S'very#r#1 good#a#1 but#r#1 only#r#1 for#ND an#n#1 email#n#1 with#ND multiple#a#1 email#n#1 was#v#1 better#a#1 \n'
p682
S'pos\n'
p683
tp684
a(S'good#NR \n'
p685
S'pos\n'
p686
tp687
a(S'saves#v#6 a_lot#r#1 of#ND time#n#3 \n'
p688
S'pos\n'
p689
tp690
a(S'works#v#14 and#ND is#v#1 easy#a#1 to#ND use#v#1 \n'
p691
S'pos\n'
p692
tp693
a(S'the#ND app#ND is#v#1 good#a#1 but#r#1 i#n#2 think#v#3 it#n#1 would#ND be#v#1 better#a#1 if#ND you#ND could#ND also#r#1 link#v#2 two#n#1 accounts#n#4 with#ND the#ND app#ND \n'
p694
S'pos\n'
p695
tp696
a(S'very#r#1 slow#a#5 app#ND yahoo#n#1 could#ND do_it#v#1 much#r#1 better#a#1 \n'
p697
S'neg\n'
p698
tp699
a(S'super#a#1 good#a#1 \n'
p700
S'pos\n'
p701
tp702
a(S'its#n#1 a#n#4 good#a#1 app#ND because#ND its#n#1 so#r#1 simple#a#5 to#ND use#v#1 \n'
p703
S'pos\n'
p704
tp705
a(S'excellent#NR \n'
p706
S'pos\n'
p707
tp708
a(S'excellent#a#1 application#n#7 recommended#v#1 \n'
p709
S'pos\n'
p710
tp711
a(S'thanks#n#2 yahoo#n#3 \n'
p712
S'pos\n'
p713
tp714
a(S'excellent#NR \n'
p715
S'pos\n'
p716
tp717
a(S'nice#a#1 app#ND and#ND easy#a#1 fast#a#1 \n'
p718
S'pos\n'
p719
tp720
a(S'oib#ND folders#n#1 are#v#1 repeated#v#1 in#n#1 my#ND inbox#ND \n'
p721
S'neg\n'
p722
tp723
a(S'very#r#1 good#r#2 app#ND \n'
p724
S'pos\n'
p725
tp726
a(S'the#ND best#a#21 way#n#4 for#ND the#ND emails#n#1 on#a#1 the#ND phone#n#2 \n'
p727
S'pos\n'
p728
tp729
a(S'how#ND can#v#2 i#n#2 access#n#4 my#ND contacts#n#6 \n'
p730
S'pos\n'
p731
tp732
a(S'great#a#6 app#ND and#ND fast#a#1 easy#a#1 \n'
p733
S'pos\n'
p734
tp735
a(S'many#a#1 thanks#n#1 \n'
p736
S'pos\n'
p737
tp738
a(S'this#ND nicely#NR app#ND \n'
p739
S'pos\n'
p740
tp741
a(S'going#v#29 well#a#2 now#n#1 i#n#2 can#v#2 delete#v#1 all#r#1 with#ND one#a#4 click#v#6 the#ND recommend#v#3 very#r#1 good#r#2 app#ND \n'
p742
S'pos\n'
p743
tp744
a(S'it#n#1 takes#v#7 two#n#1 days#n#3 without#ND working#v#2 not#r#1 charging#v#25 and#ND closes#v#15 automatically#r#2 but#r#1 happens#v#1 to#ND someone#n#1 \n'
p745
S'neg\n'
p746
tp747
a(S'very#r#1 good#r#2 \n'
p748
S'pos\n'
p749
tp750
a(S'does#v#1 the#ND job#v#1 \n'
p751
S'pos\n'
p752
tp753
a(S'fast#NR \n'
p754
S'pos\n'
p755
tp756
a(S'no#r#2 good#a#6 you#ND can#n#6 not#r#1 attach#v#1 files#n#3 \n'
p757
S'pos\n'
p758
tp759
a(S'recommended#NR \n'
p760
S'pos\n'
p761
tp762
a(S'perfect#NR \n'
p763
S'pos\n'
p764
tp765
a(S'this#ND app#ND works#v#11 perfectly#r#1 \n'
p766
S'pos\n'
p767
tp768
a(S'no#a#1 search#v#1 function#n#7 \n'
p769
S'neg\n'
p770
tp771
a(S'its#n#1 great#a#3 and#ND i#n#2 love#v#4 to#ND practice#v#3 \n'
p772
S'pos\n'
p773
tp774
a(S'funciona#ND muy#ND it#n#1 is#v#13 total#v#1 \n'
p775
S'pos\n'
p776
tp777
a(S'worth#NR \n'
p778
S'pos\n'
p779
tp780
a(S'full#v#2 of#ND functionality#n#1 \n'
p781
S'pos\n'
p782
tp783
a(S'go#n#3 faster#a#1 much#a#1 better#a#1 than#ND access#n#1 through#a#2 the#ND website#n#1 \n'
p784
S'pos\n'
p785
tp786
a(S'failure#n#3 but#r#1 have#v#1 improved#v#1 a_lot#r#1 with#ND the#ND design#n#2 \n'
p787
S'neg\n'
p788
tp789
a(S'is#v#1 for#ND but#r#1 im#ND using#v#1 in#a#2 ipad#ND 3#n#1 \n'
p790
S'neg\n'
p791
tp792
a(S'very#a#1 nice#a#3 \n'
p793
S'pos\n'
p794
tp795
a(S'perfectly#r#2 opens#v#7 and#ND messages#n#2 instant#n#2 alert#a#2 to#ND inbox#ND is#v#1 awesome#a#1 \n'
p796
S'pos\n'
p797
tp798
a(S'not_bad#a#1 at_all#r#1 \n'
p799
S'pos\n'
p800
tp801
a(S'still#v#1 not#r#1 create#v#1 disposable#a#1 addresses#n#6 on#a#2 ios#n#2 \n'
p802
S'neg\n'
p803
tp804
a(S'you#ND can#v#2 not#r#1 select#v#1 all#r#1 the#ND messages#n#2 at_once#r#1 \n'
p805
S'neg\n'
p806
tp807
a(S'i#n#2 cannot#ND access#n#1 other#a#1 folders#n#1 than#ND inbox#ND i#n#1 guess#v#2 this#ND will#n#2 be#v#10 taken#v#2 care#v#5 of#ND in#a#2 the#ND next#a#3 version#n#6 -#ND \n'
p808
S'neg\n'
p809
tp810
a(S'very#r#1 good#a#8 application#n#1 ergonomic#a#1 and#ND beautiful#a#1 everything#ND is#v#1 there#r#2 \n'
p811
S'pos\n'
p812
tp813
a(S'a#n#4 very#r#1 good#a#1 app#ND beautiful#a#1 \n'
p814
S'pos\n'
p815
tp816
a(S'excellent#NR \n'
p817
S'pos \n'
p818
tp819
a(S'unable#a#2 to#ND resolve#v#4 \n'
p820
S'neg\n'
p821
tp822
a(S'easy#a#1 to#ND use#v#1 instant#n#2 mail#n#1 perfect#a#1 \n'
p823
S'pos\n'
p824
tp825
a(S'good_luck#NR \n'
p826
S'pos\n'
p827
tp828
a(S'good#r#1 app#ND self#a#1 entrepreneur#n#1 \n'
p829
S'pos\n'
p830
tp831
a(S'can#v#2 do#v#9 better#a#1 \n'
p832
S'neg\n'
p833
tp834
a(S'it#n#1 is#v#1 in#n#3 english#n#1 \n'
p835
S'pos\n'
p836
tp837
a(S'good#a#15 app#ND easy#a#4 to#ND use#v#1 \n'
p838
S'pos\n'
p839
tp840
a(S'super#a#2 apply#v#1 \n'
p841
S'pos\n'
p842
tp843
a(S'too_bad#a#1 the#ND app#ND is#v#1 correctly#r#1 was#v#1 singing#v#2 until#ND mid-december#n#1 but#r#1 since#ND ca#n#2 15d#ND becomes#v#1 impossible#a#1 \n'
p844
S'neg\n'
p845
tp846
a(S'application#n#3 i#n#1 was#v#1 look_for#v#2 minus#a#1 one#n#1 star#n#1 because#ND i#n#1 can#v#2 not#r#1 access#n#1 to#ND attached#v#1 files#n#3 \n'
p847
S'pos\n'
p848
tp849
a(S'tha#ND app#ND sometimes#r#1 does#v#9 not#r#1 open#a#16 it#n#1 does#v#9 as#n#4 it#n#1 would#ND but#r#1 crashes#n#1 and#ND does#v#9 not#r#1 open#a#16 sometimes#r#1 it#n#1 opens#v#6 after#r#1 3#n#1 or#n#1 4#a#1 tries#n#1 but#r#1 sometimes#r#1 not#r#1 you#ND need#v#1 then#a#1 to#ND deinstall#ND and#ND install#v#1 it#n#1 again#r#1 in_order#a#1 it#n#1 opens#v#1 again#r#1 i#n#2 use#v#1 an#n#1 iphone#ND 4#a#1 with#ND ios#n#1 6#n#1 0#n#1 1#n#1 this#ND must#a#1 be#v#1 corrected#v#7 asap#r#1 please#v#1 \n'
p850
S'neg\n'
p851
tp852
a(S'shame#v#3 that#ND we#ND can#v#2 not#r#1 write#v#2 secondary#a#4 addresses#n#3 recorded#v#1 in#n#1 the#ND yahoo#n#2 \n'
p853
S'neg\n'
p854
tp855
a(S'very#a#1 proper#a#1 application#n#7 pity#n#2 that#ND i#n#2 can#v#2 not#r#1 multiple#a#1 accounts#n#4 \n'
p856
S'pos\n'
p857
tp858
a(S'the#ND best#NR \n'
p859
S'pos\n'
p860
tp861
a(S'impeccable#NR \n'
p862
S'pos\n'
p863
tp864
a(S'very#a#2 useful#a#1 application#n#2 thanks#n#2 we#ND waiting#v#3 for#ND more#a#2 \n'
p865
S'pos\n'
p866
tp867
a(S'thank_you#NR \n'
p868
S'pos\n'
p869
tp870
a(S'nice#a#1 improvement#n#2 vs#n#2 previous#a#3 versions#n#2 however#r#1 still#r#2 need#v#1 threading#v#5 vip#n#1 options#n#3 etc#ND \n'
p871
S'pos\n'
p872
tp873
a(S'big#a#1 bug#n#4 sometimes#r#1 damage#v#1 \n'
p874
S'neg\n'
p875
tp876
a(S'nothing#n#1 to#ND add#v#1 \n'
p877
S'pos\n'
p878
tp879
a(S'haste#n#1 to#ND have#v#3 now#r#2 is#v#1 doing#v#9 \n'
p880
S'pos\n'
p881
tp882
a(S'very#r#1 practical#a#3 \n'
p883
S'pos\n'
p884
tp885
a(S'these#ND cool#a#4 because#ND it#n#1 avoids#v#1 taking#n#1 the#ND option#n#3 mail#n#1 \n'
p886
S'pos\n'
p887
tp888
a(S'impossible#a#1 to#ND protect#v#1 access#n#3 to#ND the#ND messaging#n#1 code#n#2 \n'
p889
S'neg\n'
p890
tp891
a(S'size#n#1 not#r#1 adapted#v#1 to#ND the#ND screen#n#4 size#v#3 should#ND be#v#9 zoom#v#3 and_then#r#1 everything#ND becomes#v#3 a#n#2 blur#v#1 \n'
p892
S'neg\n'
p893
tp894
a(S'all#a#1 my#ND files#n#2 are#v#3 split#v#3 and#ND my#ND inbox#ND shows#v#7 2#n#1 unread#a#1 emails#n#1 but#r#1 they#ND do#v#9 not#r#1 appear#v#2 in#n#1 the#ND inbox#ND despite#n#2 a#n#4 refreshment#n#2 \n'
p895
S'neg\n'
p896
tp897
a(S'no#a#1 access#n#5 to#ND the#ND folders#n#1 \n'
p898
S'neg\n'
p899
tp900
a(S'there#r#2 should#ND be#v#6 a#n#5 way#n#5 to#ND delete#v#1 all#r#1 emails#v#1 from#ND spam#v#1 and#ND trash#n#1 with#ND one#a#7 move#v#8 instead#r#2 of#ND opening#n#13 the#ND folders#n#2 checking#v#9 one#a#7 email#n#1 then#n#1 checking#v#5 all#a#2 emails#n#1 and#ND finally#r#1 deleting#v#1 them#ND \n'
p901
S'neg\n'
p902
tp903
a(S'does#v#8 anyone#ND know#v#7 if#ND there#r#2 is#v#6 a#n#5 way#n#5 to#ND have#v#19 2#n#1 accounts#n#7 permanently#r#1 open#a#6 yahoo#n#3 mail#n#1 \n'
p904
S'neg\n'
p905
tp906
a(S'really#r#1 great#a#3 app#ND for#ND yahoo#n#2 mail#n#1 \n'
p907
S'pos\n'
p908
tp909
a(S'its#n#1 not#r#1 a#n#5 fast#a#2 app#ND problem#n#2 with#ND checking#v#10 bud#v#1 version#n#6 \n'
p910
S'neg\n'
p911
tp912
a(S'amazing#NR \n'
p913
S'pos\n'
p914
tp915
a(S'good_looks#n#1 will#n#3 see#v#16 the#ND operation#n#4 and#ND will#n#3 kratiso#ND bravo#n#1 good#a#3 app#ND \n'
p916
S'pos\n'
p917
tp918
a(S'thanks#NR \n'
p919
S'pos\n'
p920
tp921
a(S'practice#NR \n'
p922
S'neg\n'
p923
tp924
a(S'faster#a#4 and#ND smooth#a#1 \n'
p925
S'pos\n'
p926
tp927
a(S'good#a#1 one#a#7 \n'
p928
S'pos\n'
p929
tp930
a(S'is#v#6 very#a#2 stream#v#4 \n'
p931
S'pos\n'
p932
tp933
a(S'5#n#1 star#n#5 \n'
p934
S'pos\n'
p935
tp936
a(S'fierce#a#3 yes#n#1 ok#n#1 i#n#3 a#n#6 c#n#4 lock#n#1 zo#ND into#ND complete#a#1 information#n#1 the#ND pop-up#n#1 has#v#1 been#v#1 unlocked#v#1 then#a#1 login#ND turned#a#1 around#r#4 and#ND went#v#1 to#ND the#ND first#a#1 error#n#1 point#n#1 to#ND know#v#6 and#ND bounced#v#3 back#v#2 msg#n#1 a#n#4 c#n#4 lock#n#2 zo#ND \n'
p937
S'pos\n'
p938
tp939
a(S'good#a#6 job#n#3 \n'
p940
S'pos\n'
p941
tp942
a(S'good#a#5 to#ND use#v#4 keep#v#2 it#n#1 up#a#1 yahoo#n#2 \n'
p943
S'pos\n'
p944
tp945
a(S'how#ND can#v#2 i#n#2 multi#ND login#ND just#r#4 like#n#2 gmail#ND \n'
p946
S'neg\n'
p947
tp948
a(S'i#n#3 tried#v#6 to#ND set_in#v#1 iphone#ND that#ND new#a#8 mails#n#5 should#ND not#r#1 give#v#3 a#n#5 sound#a#9 all#a#2 incoming#a#1 mails#v#1 respond#v#1 with#ND a#n#5 loud#a#1 tune#n#1 that#ND it#n#1 woke#v#5 us#n#1 up#a#1 i#n#3 tried#v#6 to#ND restart#v#2 iphone#ND and#ND it#n#1 did#v#9 not#r#1 help#n#2 either#r#1 please#r#1 help#n#1 \n'
p949
S'neg\n'
p950
tp951
a(S'can#n#1 use#v#2 contact#n#7 from#ND phone#n#3 contact#n#7 only#a#1 \n'
p952
S'neg\n'
p953
tp954
a(S'like#a#2 creating#v#1 new#a#1 folders#n#1 log-in#v#1 and#ND fast#a#1 switch#v#3 between#r#1 multiple#a#1 accounts#n#4 \n'
p955
S'pos\n'
p956
tp957
a(S'always#r#1 can#v#2 load#n#6 into#ND the#ND apps#ND \n'
p958
S'pos\n'
p959
tp960
a(S'than#ND before#r#2 better#r#4 and#ND faster#r#1 clear#n#1 easy#r#3 to#ND use#v#1 \n'
p961
S'pos\n'
p962
tp963
a(S'finally#r#3 got#v#11 this#ND v#n#2 useful#a#1 \n'
p964
S'pos\n'
p965
tp966
a(S'than#ND the#ND gmail#ND app#ND easy#a#1 to#ND use#v#1 but#r#1 the#ND fly_in_the_ointment#n#1 is#v#1 only#r#7 one#a#7 account#n#4 can#v#2 log_in#v#1 and#ND hope#v#3 that#ND the#ND next#a#1 version#n#3 supports#n#5 multi-account#ND login#ND \n'
p967
S'pos\n'
p968
tp969
a(S'more#r#1 better#r#1 then#r#1 icloud#ND \n'
p970
S'pos\n'
p971
tp972
a(S'as#n#4 subject#n#3 \n'
p973
S'pos\n'
p974
tp975
a(S'good#NR app#ND \n'
p976
S'pos\n'
p977
tp978
a(S'good#NR app#ND \n'
p979
S'pos\n'
p980
tp981
a(S'excellent#NR \n'
p982
S'pos\n'
p983
tp984
a(S'in#n#1 the#ND long#a#1 and#ND wonderous#ND tradition#n#2 of#ND yahoo#n#2 fails#v#1 -#ND this#ND one#a#4 tops#n#5 the#ND charts#n#1 app#ND crashes#v#12 at#n#1 any#a#1 opportunity#n#1 -#ND if#ND it#n#1 opens#v#4 at_all#r#1 i#n#2 guess#v#1 after_all#r#2 the#ND years#n#2 of#ND agony#n#2 the#ND time#v#2 has#v#1 come_to#v#3 put#v#4 yahoo#n#3 mail_out#v#1 of#ND its#n#1 misery#n#1 rest#n#2 in#a#1 peace#n#1 \n'
p985
S'neg\n'
p986
tp987
a(S'extra#NR \n'
p988
S'pos\n'
p989
tp990
a(S'just#a#1 could#ND be#v#1 better#a#1 i#n#2 was#v#1 expecting#v#1 a_lot#r#1 more#a#1 from#ND yahoo#n#2 \n'
p991
S'neg\n'
p992
tp993
a(S'very#r#1 cool#a#6 \n'
p994
S'pos\n'
p995
tp996
a(S'good#a#1 but#r#1 can#n#1 handle#n#1 only#r#7 one#a#7 account#n#8 \n'
p997
S'pos\n'
p998
tp999
a(S'nice#NR app#ND \n'
p1000
S'pos\n'
p1001
tp1002
a(S'please#v#2 make_it#v#2 work_on#v#2 ios#n#1 5#a#1 please#v#1 \n'
p1003
S'neg\n'
p1004
tp1005
a(S'good#r#1 mail#v#1 \n'
p1006
S'pos\n'
p1007
tp1008
a(S'its#n#1 will#n#3 be#v#1 great#a#4 if#ND support#v#11 multiple#a#1 account#n#4 \n'
p1009
S'pos\n'
p1010
tp1011
a(S'this#ND app#ND is#v#12 so#r#3 usefull#ND and#ND its#n#1 so#r#9 easy#a#1 to#ND use#v#1 and#ND very#r#1 very_light#n#1 to#ND open#a#14 mail#n#2 content#n#2 manage#v#2 erase#v#1 multyple#ND and_so#r#1 thank#v#1 u#n#3 yahoo#n#2 \n'
p1012
S'pos\n'
p1013
tp1014
a(S'cannot#ND add#v#6 field#n#4 name#v#1 just#a#1 showed#v#4 mail#n#1 address#n#6 instead#r#2 otherwise#a#1 great#a#3 application#n#3 \n'
p1015
S'pos\n'
p1016
tp1017
a(S'nice#a#3 apps#ND but#r#1 cant#n#1 download#v#1 any#a#1 attachment#n#5 and#ND edit#v#1 forward#a#2 any#a#1 email#n#1 \n'
p1018
S'pos\n'
p1019
tp1020
a(S'please#v#1 make#v#3 an#n#1 option#n#1 to#ND back#r#4 view#n#3 list#n#1 mail#n#1 after#r#1 deleting#v#1 some#a#1 mail#n#3 \n'
p1021
S'pos\n'
p1022
tp1023
a(S'very#r#1 good#r#2 appl#ND \n'
p1024
S'pos\n'
p1025
tp1026
a(S'add#v#1 flagged#v#3 folder#n#1 please#v#3 and#ND i#n#2 suggest#v#2 this#ND app#ND to#ND follow#v#23 gmail#ND app#ND \n'
p1027
S'neg\n'
p1028
tp1029
a(S'ready#a#1 to#ND try#n#1 \n'
p1030
S'pos\n'
p1031
tp1032
a(S'need#v#2 multi#ND account#v#1 support#v#5 m#n#6 threaded#v#3 view#n#7 please#v#3 im#ND waiting#v#3 \n'
p1033
S'neg\n'
p1034
tp1035
a(S'great#a#4 but#r#1 there#r#2 is#v#1 no#a#1 room#n#1 for#ND user#n#3 to#ND customize#v#2 own#a#1 \n'
p1036
S'pos\n'
p1037
tp1038
a(S'this#ND app#ND is#v#1 good#a#1 but#r#1 not#r#1 support#n#10 multiple#a#1 account#n#4 please#r#1 update#v#3 \n'
p1039
S'pos\n'
p1040
tp1041
a(S'its#n#1 good#a#1 but#r#1 i#n#2 cant#n#3 dowload#ND mail#n#1 with#ND pic#n#1 attachments#n#7 pls#ND fix#v#2 it#n#1 pleaseeee#ND thank_you#n#1 so#r#4 much#a#1 \n'
p1042
S'pos\n'
p1043
tp1044
a(S'nicee#ND apps#ND keep_up#v#2 the#ND good#a#1 work#n#1 team#n#1 \n'
p1045
S'pos\n'
p1046
tp1047
a(S'i#n#2 find#v#2 ive#ND no#a#1 problems#n#2 what#ND so#r#9 ever#r#2 with#ND the#ND app#ND \n'
p1048
S'pos\n'
p1049
tp1050
a(S'sometimes#r#1 it#n#1 says#v#1 i#n#2 have#v#15 a#n#4 new#a#6 email#n#1 but#r#1 doesnt#ND show#v#9 even#n#1 after#a#1 logging#n#1 out#a#9 many#a#1 times#n#3 \n'
p1051
S'neg\n'
p1052
tp1053
a(S'app#ND doesnt#ND seem#v#4 to#ND refresh#v#1 external#a#1 mail#v#1 as#n#1 can#v#2 be#v#1 done#v#9 on#a#1 web#n#4 version#n#4 renders#v#2 the#ND app#ND useless#a#1 to#ND anyone#ND using#v#1 yahoo#n#2 mail#n#1 with#ND external#a#2 email#n#1 account#n#2 \n'
p1054
S'neg\n'
p1055
tp1056
a(S'the#ND apps#ND are#v#1 nice#a#1 i#n#2 think#v#13 they#ND should#ND have#v#15 allow#v#2 2#n#1 or#n#2 more#n#1 yahoo#n#2 account#n#9 in#n#2 one#a#4 apps#ND thats#ND really#r#2 nice#n#1 \n'
p1057
S'pos\n'
p1058
tp1059
a(S'great#a#3 app#ND easy#a#1 to#ND get_around#v#4 attractive#a#1 design#n#2 \n'
p1060
S'pos\n'
p1061
tp1062
a(S'the#ND iphone#ND would#ND have#v#15 a#n#4 brilliant#a#5 and#ND clean#a#6 mail#n#1 app#ND why#n#1 should#ND i#n#2 want#n#2 to#ND use#v#1 an#n#1 app#ND with#ND ads#n#1 and#ND a#n#6 bad#a#11 user#n#1 experience#v#1 instead#r#2 and#ND why#n#1 did#v#9 this#ND app#ND get#v#24 directly#r#4 5#n#1 times#n#2 5#n#1 stars#n#5 hmm#ND \n'
p1063
S'neg\n'
p1064
tp1065
a(S'very#a#2 handy#a#1 when#ND it#n#1 works#n#1 but#r#1 it#n#1 freezes#v#4 up#a#2 every#a#1 time#n#5 you#ND open#a#21 the#ND menu#n#1 tab#n#1 only#a#1 solution#n#1 is#v#1 to#ND delete#v#1 app#ND and#ND reinstall#v#1 \n'
p1066
S'neg\n'
p1067
tp1068
a(S'love#n#1 it#n#1 \n'
p1069
S'pos\n'
p1070
tp1071
a(S'if#ND there#r#2 was#v#6 a#n#5 minus#n#1 5#n#1 stars#n#1 thats#ND how#ND bad#a#1 i#n#1 would#ND rate#n#1 this#ND \n'
p1072
S'neg\n'
p1073
tp1074
a(S'at_last#r#1 this#ND app#ND has#v#13 saved#v#2 me#n#1 time#n#5 and#ND made#v#3 tapping#v#4 easier#a#1 \n'
p1075
S'pos\n'
p1076
tp1077
a(S'this#ND app#ND worked#v#2 quite#r#2 well#a#1 initially#r#1 it#n#1 has#v#15 a#n#4 very#a#1 nice#a#3 interface#n#2 and#ND integrates#v#3 seamlessly#ND with#ND yahoo#n#2 webmail#ND without#ND the#ND annoyances#n#2 of#ND marking#n#1 emails#n#1 as#n#1 read#v#11 etc#ND that#ND comes#v#4 with#ND the#ND native#a#1 app#ND after#r#1 a_few#a#1 weeks#n#3 use#n#3 it#n#1 is#v#1 constantly#r#2 crashing#v#3 which#ND i#n#1 presume#v#2 is#v#1 a#n#5 memory#n#2 issue#n#7 needs#v#1 a#n#4 fix#v#3 to#ND continue#v#7 using#v#6 it#n#1 3gs#ND ios#n#1 6#n#1 0#n#1 1#n#1 \n'
p1078
S'neg\n'
p1079
tp1080
a(S'its#n#1 works#n#1 brilliantly#r#2 and#ND is#v#1 good#a#1 \n'
p1081
S'pos\n'
p1082
tp1083
a(S'great#a#4 app#ND its#n#1 classy#a#1 looking#v#1 it#n#1 is#v#1 easy#a#1 to#ND get_to#v#3 different#a#3 folders#n#1 and#ND it#n#1 is#v#1 purple#a#3 great#a#2 job#n#6 \n'
p1084
S'pos\n'
p1085
tp1086
a(S'regular#a#1 and#ND ongoing#a#1 issues#v#2 with#ND crashing#v#11 and#ND app#ND stability#n#3 i#n#1 think#v#7 ill#a#1 come_back#v#4 when#ND bugs#n#4 have#v#1 been#v#1 fixes#v#12 \n'
p1087
S'neg\n'
p1088
tp1089
a(S'finally#r#2 its#n#1 an#n#1 amazing#v#2 app#ND \n'
p1090
S'pos\n'
p1091
tp1092
a(S'finally#r#2 a#n#6 great#a#3 app#ND to#ND manage#v#2 yahoo#n#3 email#v#1 and#ND replace#v#1 the#ND native#n#1 app#ND \n'
p1093
S'pos\n'
p1094
tp1095
a(S'great#a#6 to#ND use#v#3 i#n#2 like#n#2 \n'
p1096
S'pos\n'
p1097
tp1098
a(S'quite_a#r#1 surprise#v#1 from#ND yahoo#n#3 who#n#1 seem#v#1 to#ND have#v#14 ignored#v#2 the#ND ios#n#1 for#ND quite_a#r#1 while#n#1 this#ND is#v#1 a#n#5 super#a#1 clean#v#1 fast#a#1 and#ND easy#a#1 to#ND use#n#1 application#n#1 and#ND i#n#2 think#v#3 one#a#4 of#ND the#ND better#r#13 third_party#n#1 web#n#4 mail#v#1 apps#ND out#a#6 there#r#3 for#ND iphone#ND \n'
p1099
S'pos\n'
p1100
tp1101
a(S'not#r#1 to#ND bad#a#1 at_all#r#1 pointless#a#2 haven#n#2 a#n#4 mail#v#1 app#ND on#a#1 the#ND phone#n#2 now#n#1 with#ND this#ND \n'
p1102
S'pos\n'
p1103
tp1104
a(S'nice#NR app#ND \n'
p1105
S'pos\n'
p1106
tp1107
a(S'stable#a#2 good#a#11 speed#v#5 and#ND view#n#8 of#ND content#n#7 and#ND browsing#n#1 \n'
p1108
S'pos\n'
p1109
tp1110
a(S'excellent#a#1 very#r#1 easy#a#1 to#ND use#v#1 no#a#1 need#v#2 to#ND log_in#v#1 through#a#2 computer#n#1 \n'
p1111
S'pos\n'
p1112
tp1113
a(S'love#n#1 it#n#1 works#v#11 well#r#13 in#n#3 israel#n#1 \n'
p1114
S'pos\n'
p1115
tp1116
a(S'we#ND miss#v#1 the#ND ability#n#1 to#ND delete#v#1 or#n#2 create#v#1 new#a#1 folder#n#1 and#ND its#n#1 not#r#1 good#a#3 \n'
p1117
S'neg\n'
p1118
tp1119
a(S'rar#ND file#n#3 when#ND attached#v#1 cant#n#3 be#v#3 opened#v#6 from#ND the#ND app#ND \n'
p1120
S'neg\n'
p1121
tp1122
a(S'good#NR \n'
p1123
S'pos\n'
p1124
tp1125
a(S'so#r#4 many#a#1 apps#ND now#n#1 are#v#1 universal#n#3 for#ND ipad#ND too#r#1 why#n#1 cant#n#1 this#ND app#ND support#v#6 it#n#1 as_well#r#1 \n'
p1126
S'neg\n'
p1127
tp1128
a(S'easy#a#4 and#ND nice#a#1 for#ND the#ND user#n#3 \n'
p1129
S'pos\n'
p1130
tp1131
a(S'guys#n#3 without#ND support#n#10 for#ND business#n#9 mail#v#2 it#n#1 is#v#1 worth#n#2 nothing#n#1 got#v#26 it#n#1 \n'
p1132
S'neg\n'
p1133
tp1134
a(S'like#NR \n'
p1135
S'pos\n'
p1136
tp1137
a(S'very#r#1 good#r#2 \n'
p1138
S'pos\n'
p1139
tp1140
a(S'best#a#1 gui#n#1 \n'
p1141
S'pos\n'
p1142
tp1143
a(S'the#ND new#a#8 mail#n#5 app#ND is#v#1 very_fast#r#1 and#ND smooth#a#7 \n'
p1144
S'pos\n'
p1145
tp1146
a(S'from#ND a#n#5 company#n#1 like#a#1 yahoo#n#2 this#ND is#v#1 unacceptable#a#2 otherwise#a#1 its#n#1 a#n#4 very#a#2 decent#a#3 app#ND no_doubt#r#1 \n'
p1147
S'neg\n'
p1148
tp1149
a(S'i#n#2 downloaded#v#1 logged#v#2 in#n#1 deleted#v#1 a_few#a#1 mails#n#1 and#ND logged#v#1 off#v#1 after#r#1 sometime#a#1 i#n#2 got#v#1 a#n#5 new#a#8 mail#n#5 notification#n#2 i#n#2 dont#ND want#v#2 to#ND be#v#13 bugged#a#1 when#ND logged#v#1 off#v#1 \n'
p1150
S'neg\n'
p1151
tp1152
a(S'thought#v#3 it#n#1 will#n#2 support#v#11 yahoo#n#3 business#n#2 mail#n#1 but#r#1 does#v#9 not#r#1 making#v#10 the#ND app#ND useless#a#1 clutter#n#2 \n'
p1153
S'neg\n'
p1154
tp1155
a(S'good#a#5 work#v#23 but#r#1 i#n#2 cant#n#1 see#v#4 yahoo#n#2 chat#n#3 in#a#2 my#ND messenger#n#1 any#a#1 idea#n#1 \n'
p1156
S'pos\n'
p1157
tp1158
a(S'excellent#a#1 app#ND fast#a#1 fluid#n#2 and#ND very#r#1 simple#a#1 \n'
p1159
S'pos\n'
p1160
tp1161
a(S'been#v#1 using#v#1 google#n#1 gmail#ND for#ND a#n#4 long#a#1 installed#v#1 yahoo#n#2 mail#n#1 app#ND to#ND try#n#1 surprisingly#r#2 yahoo#n#2 app#ND is#v#1 more#r#1 refreshing#v#1 than#ND gmail#ND \n'
p1162
S'pos\n'
p1163
tp1164
a(S'finally#r#1 yahoo#n#3 mail#n#5 app#ND great#a#5 work#v#11 '
p1165
S'pos\n'
p1166
tp1167
a.